 bufferutil

 Timestamp is 5717c495 (Wed Apr 20 20:04:05 2016)

 Preferred load address is 0000000180000000

 Start         Length     Name                   Class
 0001:00000000 00000033H .text$di                CODE
 0001:00000040 00010be3H .text$mn                CODE
 0001:00010c30 000002a0H .text$x                 CODE
 0001:00010ed0 000000e0H .text$yd                CODE
 0002:00000000 00000228H .idata$5                DATA
 0002:00000228 00000008H .CRT$XCA                DATA
 0002:00000230 00000028H .CRT$XCU                DATA
 0002:00000258 00000008H .CRT$XCZ                DATA
 0002:00000260 00000008H .CRT$XIA                DATA
 0002:00000268 00000020H .CRT$XIC                DATA
 0002:00000288 00000008H .CRT$XIZ                DATA
 0002:00000290 00000008H .CRT$XPA                DATA
 0002:00000298 00000010H .CRT$XPX                DATA
 0002:000002a8 00000008H .CRT$XPXA               DATA
 0002:000002b0 00000008H .CRT$XPZ                DATA
 0002:000002b8 00000008H .CRT$XTA                DATA
 0002:000002c0 00000008H .CRT$XTZ                DATA
 0002:000002d0 00007600H .rdata                  DATA
 0002:000078d0 00000084H .rdata$debug            DATA
 0002:00007958 00000274H .rdata$r                DATA
 0002:00007bd0 00000008H .rtc$IAA                DATA
 0002:00007bd8 00000008H .rtc$IZZ                DATA
 0002:00007be0 00000008H .rtc$TAA                DATA
 0002:00007be8 00000008H .rtc$TZZ                DATA
 0002:00007bf0 00000d1cH .xdata                  DATA
 0002:00008910 00000114H .xdata$x                DATA
 0002:00008a24 00000020H .didat$2                DATA
 0002:00008a44 00000020H .didat$3                DATA
 0002:00008a68 00000228H .didat$4                DATA
 0002:00008c90 00001326H .didat$6                DATA
 0002:00009fb8 00000228H .didat$7                DATA
 0002:0000a1e0 00003ab5H .edata                  DATA
 0002:0000dc98 00000014H .idata$2                DATA
 0002:0000dcac 00000014H .idata$3                DATA
 0002:0000dcc0 00000228H .idata$4                DATA
 0002:0000dee8 00000500H .idata$6                DATA
 0003:00000000 00001888H .data                   DATA
 0003:00001888 000000c0H .data$r                 DATA
 0003:00001948 00000228H .didat$5                DATA
 0003:00001b80 000024c8H .bss                    DATA
 0004:00000000 00000f3cH .pdata                  DATA
 0005:00000000 00000058H .rsrc$01                DATA
 0005:00000060 00000180H .rsrc$02                DATA

  Address         Publics by Value              Rva+Base               Lib:Object

 0000:00000000       ___safe_se_handler_count   0000000000000000     <absolute>
 0000:00000000       __guard_fids_count         0000000000000000     <absolute>
 0000:00000000       __guard_fids_table         0000000000000000     <absolute>
 0000:00000000       ___safe_se_handler_table   0000000000000000     <absolute>
 0000:00000000       __guard_flags              0000000000000000     <absolute>
 0000:00000000       __ImageBase                0000000180000000     <linker-defined>
 0001:00000040       ??DValue@String@v8@@QEAAPEAGXZ 0000000180001040 f i bufferutil.obj
 0001:00000040       ??DValue@String@v8@@QEBAPEBGXZ 0000000180001040 f i bufferutil.obj
 0001:00000040       ?Data@Contents@SharedArrayBuffer@v8@@QEBAPEAXXZ 0000000180001040 f i bufferutil.obj
 0001:00000040       ??DUtf8Value@String@v8@@QEAAPEADXZ 0000000180001040 f i bufferutil.obj
 0001:00000040       ??DUtf8Value@String@v8@@QEBAPEBDXZ 0000000180001040 f i bufferutil.obj
 0001:00000040       ?Data@Contents@ArrayBuffer@v8@@QEBAPEAXXZ 0000000180001040 f i bufferutil.obj
 0001:00000040       ?space_name@HeapSpaceStatistics@v8@@QEAAPEBDXZ 0000000180001040 f i bufferutil.obj
 0001:00000040       ?total_heap_size@HeapStatistics@v8@@QEAA_KXZ 0000000180001040 f i bufferutil.obj
 0001:00000040       ?GetIsolate@HandleScope@v8@@QEBAPEAVIsolate@2@XZ 0000000180001040 f i bufferutil.obj
 0001:00000040       ?object_type@HeapObjectStatistics@v8@@QEAAPEBDXZ 0000000180001040 f i bufferutil.obj
 0001:00000040       ?impl@StreamedSource@ScriptCompiler@v8@@QEBAPEAU1internal@3@XZ 0000000180001040 f i bufferutil.obj
 0001:00000050       ??4JSON@v8@@QEAAAEAV01@AEBV01@@Z 0000000180001050 f i bufferutil.obj
 0001:00000050       ?Cast@Integer@v8@@SAPEAV12@PEAVValue@2@@Z 0000000180001050 f i bufferutil.obj
 0001:00000050       ??4Template@v8@@QEAAAEAV01@AEBV01@@Z 0000000180001050 f i bufferutil.obj
 0001:00000050       ??0?$_Wrap_alloc@V?$allocator@U?$_Tree_node@U?$pair@Q6AXAEBV?$FunctionCallbackInfo@VValue@v8@@@Nan@@@ZPEAUFunctionWrapper@imp@2@@std@@PEAX@std@@@std@@@std@@QEAA@XZ 0000000180001050 f i bufferutil.obj
 0001:00000050       ??4String@v8@@QEAAAEAV01@AEBV01@@Z 0000000180001050 f i bufferutil.obj
 0001:00000050       ??4Number@v8@@QEAAAEAV01@AEBV01@@Z 0000000180001050 f i bufferutil.obj
 0001:00000050       ??4SymbolObject@v8@@QEAAAEAV01@AEBV01@@Z 0000000180001050 f i bufferutil.obj
 0001:00000050       ??4Int8Array@v8@@QEAAAEAV01@AEBV01@@Z 0000000180001050 f i bufferutil.obj
 0001:00000050       ?Cast@Symbol@v8@@SAPEAV12@PEAVValue@2@@Z 0000000180001050 f i bufferutil.obj
 0001:00000050       ?Cast@StringObject@v8@@SAPEAV12@PEAVValue@2@@Z 0000000180001050 f i bufferutil.obj
 0001:00000050       ?Cast@Int16Array@v8@@SAPEAV12@PEAVValue@2@@Z 0000000180001050 f i bufferutil.obj
 0001:00000050       ??4Value@v8@@QEAAAEAV01@AEBV01@@Z 0000000180001050 f i bufferutil.obj
 0001:00000050       ??4Int32Array@v8@@QEAAAEAV01@AEBV01@@Z 0000000180001050 f i bufferutil.obj
 0001:00000050       ??4RegExp@v8@@QEAAAEAV01@AEBV01@@Z 0000000180001050 f i bufferutil.obj
 0001:00000050       ??4Symbol@v8@@QEAAAEAV01@AEBV01@@Z 0000000180001050 f i bufferutil.obj
 0001:00000050       ??4Int16Array@v8@@QEAAAEAV01@AEBV01@@Z 0000000180001050 f i bufferutil.obj
 0001:00000050       ?Cast@Float32Array@v8@@SAPEAV12@PEAVValue@2@@Z 0000000180001050 f i bufferutil.obj
 0001:00000050       ??4Object@v8@@QEAAAEAV01@AEBV01@@Z 0000000180001050 f i bufferutil.obj
 0001:00000050       ?Cast@Name@v8@@SAPEAV12@PEAVValue@2@@Z 0000000180001050 f i bufferutil.obj
 0001:00000050       ??4Uint16Array@v8@@QEAAAEAV01@AEBV01@@Z 0000000180001050 f i bufferutil.obj
 0001:00000050       ??4BooleanObject@v8@@QEAAAEAV01@AEBV01@@Z 0000000180001050 f i bufferutil.obj
 0001:00000050       ??4Primitive@v8@@QEAAAEAV01@AEBV01@@Z 0000000180001050 f i bufferutil.obj
 0001:00000050       ?Cast@String@v8@@SAPEAV12@PEAVValue@2@@Z 0000000180001050 f i bufferutil.obj
 0001:00000050       ??4Map@v8@@QEAAAEAV01@AEBV01@@Z 0000000180001050 f i bufferutil.obj
 0001:00000050       ??4Data@v8@@QEAAAEAV01@AEBV01@@Z 0000000180001050 f i bufferutil.obj
 0001:00000050       ?Cast@SymbolObject@v8@@SAPEAV12@PEAVValue@2@@Z 0000000180001050 f i bufferutil.obj
 0001:00000050       ?Cast@ArrayBuffer@v8@@SAPEAV12@PEAVValue@2@@Z 0000000180001050 f i bufferutil.obj
 0001:00000050       ?Cast@NumberObject@v8@@SAPEAV12@PEAVValue@2@@Z 0000000180001050 f i bufferutil.obj
 0001:00000050       ??4ScriptCompiler@v8@@QEAAAEAV01@AEBV01@@Z 0000000180001050 f i bufferutil.obj
 0001:00000050       ??4StackFrame@v8@@QEAAAEAV01@AEBV01@@Z 0000000180001050 f i bufferutil.obj
 0001:00000050       ??4Context@v8@@QEAAAEAV01@AEBV01@@Z 0000000180001050 f i bufferutil.obj
 0001:00000050       ??4TypeSwitch@v8@@QEAAAEAV01@AEBV01@@Z 0000000180001050 f i bufferutil.obj
 0001:00000050       ??4Message@v8@@QEAAAEAV01@AEBV01@@Z 0000000180001050 f i bufferutil.obj
 0001:00000050       ??4PersistentHandleVisitor@v8@@QEAAAEAV01@AEBV01@@Z 0000000180001050 f i bufferutil.obj
 0001:00000050       ??4AccessorSignature@v8@@QEAAAEAV01@AEBV01@@Z 0000000180001050 f i bufferutil.obj
 0001:00000050       ??4Int32@v8@@QEAAAEAV01@AEBV01@@Z 0000000180001050 f i bufferutil.obj
 0001:00000050       ?Cast@Function@v8@@SAPEAV12@PEAVValue@2@@Z 0000000180001050 f i bufferutil.obj
 0001:00000050       ??4Signature@v8@@QEAAAEAV01@AEBV01@@Z 0000000180001050 f i bufferutil.obj
 0001:00000050       ??4Date@v8@@QEAAAEAV01@AEBV01@@Z 0000000180001050 f i bufferutil.obj
 0001:00000050       ??4Uint8Array@v8@@QEAAAEAV01@AEBV01@@Z 0000000180001050 f i bufferutil.obj
 0001:00000050       ??4External@v8@@QEAAAEAV01@AEBV01@@Z 0000000180001050 f i bufferutil.obj
 0001:00000050       ??4NativeWeakMap@v8@@QEAAAEAV01@AEBV01@@Z 0000000180001050 f i bufferutil.obj
 0001:00000050       ??4Function@v8@@QEAAAEAV01@AEBV01@@Z 0000000180001050 f i bufferutil.obj
 0001:00000050       ??4ArrayBuffer@v8@@QEAAAEAV01@AEBV01@@Z 0000000180001050 f i bufferutil.obj
 0001:00000050       ?Cast@Resolver@Promise@v8@@SAPEAV123@PEAVValue@3@@Z 0000000180001050 f i bufferutil.obj
 0001:00000050       ?Cast@Date@v8@@SAPEAV12@PEAVValue@2@@Z 0000000180001050 f i bufferutil.obj
 0001:00000050       ?Cast@Uint32Array@v8@@SAPEAV12@PEAVValue@2@@Z 0000000180001050 f i bufferutil.obj
 0001:00000050       ??4ObjectTemplate@v8@@QEAAAEAV01@AEBV01@@Z 0000000180001050 f i bufferutil.obj
 0001:00000050       ?Cast@Uint16Array@v8@@SAPEAV12@PEAVValue@2@@Z 0000000180001050 f i bufferutil.obj
 0001:00000050       ?Cast@Promise@v8@@SAPEAV12@PEAVValue@2@@Z 0000000180001050 f i bufferutil.obj
 0001:00000050       ?Cast@BooleanObject@v8@@SAPEAV12@PEAVValue@2@@Z 0000000180001050 f i bufferutil.obj
 0001:00000050       ??4Float32Array@v8@@QEAAAEAV01@AEBV01@@Z 0000000180001050 f i bufferutil.obj
 0001:00000050       ??4SharedArrayBuffer@v8@@QEAAAEAV01@AEBV01@@Z 0000000180001050 f i bufferutil.obj
 0001:00000050       ??4Boolean@v8@@QEAAAEAV01@AEBV01@@Z 0000000180001050 f i bufferutil.obj
 0001:00000050       ??4Name@v8@@QEAAAEAV01@AEBV01@@Z 0000000180001050 f i bufferutil.obj
 0001:00000050       ??4Integer@v8@@QEAAAEAV01@AEBV01@@Z 0000000180001050 f i bufferutil.obj
 0001:00000050       ?Cast@RegExp@v8@@SAPEAV12@PEAVValue@2@@Z 0000000180001050 f i bufferutil.obj
 0001:00000050       ?Cast@ArrayBufferView@v8@@SAPEAV12@PEAVValue@2@@Z 0000000180001050 f i bufferutil.obj
 0001:00000050       ??4Script@v8@@QEAAAEAV01@AEBV01@@Z 0000000180001050 f i bufferutil.obj
 0001:00000050       ?Cast@Uint32@v8@@SAPEAV12@PEAVValue@2@@Z 0000000180001050 f i bufferutil.obj
 0001:00000050       ??4ExternalResourceVisitor@v8@@QEAAAEAV01@AEBV01@@Z 0000000180001050 f i bufferutil.obj
 0001:00000050       ??4StackTrace@v8@@QEAAAEAV01@AEBV01@@Z 0000000180001050 f i bufferutil.obj
 0001:00000050       ?Cast@Int32@v8@@SAPEAV12@PEAVValue@2@@Z 0000000180001050 f i bufferutil.obj
 0001:00000050       ??4StringObject@v8@@QEAAAEAV01@AEBV01@@Z 0000000180001050 f i bufferutil.obj
 0001:00000050       ?Cast@SharedArrayBuffer@v8@@SAPEAV12@PEAVValue@2@@Z 0000000180001050 f i bufferutil.obj
 0001:00000050       ??4ArrayBufferView@v8@@QEAAAEAV01@AEBV01@@Z 0000000180001050 f i bufferutil.obj
 0001:00000050       ?Cast@Boolean@v8@@SAPEAV12@PEAVValue@2@@Z 0000000180001050 f i bufferutil.obj
 0001:00000050       ?Cast@Object@v8@@SAPEAV12@PEAVValue@2@@Z 0000000180001050 f i bufferutil.obj
 0001:00000050       ??4Array@v8@@QEAAAEAV01@AEBV01@@Z 0000000180001050 f i bufferutil.obj
 0001:00000050       ??4ExternalSourceStream@ScriptCompiler@v8@@QEAAAEAV012@AEBV012@@Z 0000000180001050 f i bufferutil.obj
 0001:00000050       ??4Float64Array@v8@@QEAAAEAV01@AEBV01@@Z 0000000180001050 f i bufferutil.obj
 0001:00000050       ??4NumberObject@v8@@QEAAAEAV01@AEBV01@@Z 0000000180001050 f i bufferutil.obj
 0001:00000050       ??4DataView@v8@@QEAAAEAV01@AEBV01@@Z 0000000180001050 f i bufferutil.obj
 0001:00000050       ?Cast@Map@v8@@SAPEAV12@PEAVValue@2@@Z 0000000180001050 f i bufferutil.obj
 0001:00000050       ??4Resolver@Promise@v8@@QEAAAEAV012@AEBV012@@Z 0000000180001050 f i bufferutil.obj
 0001:00000050       ??4Uint32@v8@@QEAAAEAV01@AEBV01@@Z 0000000180001050 f i bufferutil.obj
 0001:00000050       ?Cast@DataView@v8@@SAPEAV12@PEAVValue@2@@Z 0000000180001050 f i bufferutil.obj
 0001:00000050       ?Cast@Set@v8@@SAPEAV12@PEAVValue@2@@Z 0000000180001050 f i bufferutil.obj
 0001:00000050       ??4Uint32Array@v8@@QEAAAEAV01@AEBV01@@Z 0000000180001050 f i bufferutil.obj
 0001:00000050       ?Cast@TypedArray@v8@@SAPEAV12@PEAVValue@2@@Z 0000000180001050 f i bufferutil.obj
 0001:00000050       ??4UnboundScript@v8@@QEAAAEAV01@AEBV01@@Z 0000000180001050 f i bufferutil.obj
 0001:00000050       ??4Promise@v8@@QEAAAEAV01@AEBV01@@Z 0000000180001050 f i bufferutil.obj
 0001:00000050       ??4V8@v8@@QEAAAEAV01@AEBV01@@Z 0000000180001050 f i bufferutil.obj
 0001:00000050       ?Cast@Uint8Array@v8@@SAPEAV12@PEAVValue@2@@Z 0000000180001050 f i bufferutil.obj
 0001:00000050       ?Cast@Float64Array@v8@@SAPEAV12@PEAVValue@2@@Z 0000000180001050 f i bufferutil.obj
 0001:00000050       ?Cast@Uint8ClampedArray@v8@@SAPEAV12@PEAVValue@2@@Z 0000000180001050 f i bufferutil.obj
 0001:00000050       ??4FunctionTemplate@v8@@QEAAAEAV01@AEBV01@@Z 0000000180001050 f i bufferutil.obj
 0001:00000050       ??4TypedArray@v8@@QEAAAEAV01@AEBV01@@Z 0000000180001050 f i bufferutil.obj
 0001:00000050       ??4Allocator@ArrayBuffer@v8@@QEAAAEAV012@AEBV012@@Z 0000000180001050 f i bufferutil.obj
 0001:00000050       ?Cast@External@v8@@SAPEAV12@PEAVValue@2@@Z 0000000180001050 f i bufferutil.obj
 0001:00000050       ?Cast@Int8Array@v8@@SAPEAV12@PEAVValue@2@@Z 0000000180001050 f i bufferutil.obj
 0001:00000050       ??0HandleScope@v8@@IEAA@XZ 0000000180001050 f i bufferutil.obj
 0001:00000050       ??4Set@v8@@QEAAAEAV01@AEBV01@@Z 0000000180001050 f i bufferutil.obj
 0001:00000050       ??4Uint8ClampedArray@v8@@QEAAAEAV01@AEBV01@@Z 0000000180001050 f i bufferutil.obj
 0001:00000050       ?Cast@Number@v8@@SAPEAV12@PEAVValue@2@@Z 0000000180001050 f i bufferutil.obj
 0001:00000050       ?Cast@Array@v8@@SAPEAV12@PEAVValue@2@@Z 0000000180001050 f i bufferutil.obj
 0001:00000050       ??4Exception@v8@@QEAAAEAV01@AEBV01@@Z 0000000180001050 f i bufferutil.obj
 0001:00000050       ?Cast@Int32Array@v8@@SAPEAV12@PEAVValue@2@@Z 0000000180001050 f i bufferutil.obj
 0001:00000060       ??1EscapableHandleScope@v8@@QEAA@XZ 0000000180001060 f i bufferutil.obj
 0001:00000070       ??0CachedData@ScriptCompiler@v8@@QEAA@XZ 0000000180001070 f i bufferutil.obj
 0001:00000090       ??1ExternalSourceStream@ScriptCompiler@v8@@UEAA@XZ 0000000180001090 f i bufferutil.obj
 0001:000000a0       ??0ExternalSourceStream@ScriptCompiler@v8@@QEAA@XZ 00000001800010a0 f i bufferutil.obj
 0001:000000a0       ??0ExternalSourceStream@ScriptCompiler@v8@@QEAA@AEBV012@@Z 00000001800010a0 f i bufferutil.obj
 0001:000000b0       ??_EExternalSourceStream@ScriptCompiler@v8@@UEAAPEAXI@Z 00000001800010b0 f i bufferutil.obj
 0001:00000130       ??1ExternalStringResource@String@v8@@UEAA@XZ 0000000180001130 f i bufferutil.obj
 0001:00000130       ??1ExternalOneByteStringResource@String@v8@@UEAA@XZ 0000000180001130 f i bufferutil.obj
 0001:00000130       ??1ExternalStringResourceBase@String@v8@@UEAA@XZ 0000000180001130 f i bufferutil.obj
 0001:00000130       ??1ExternalOneByteStringResourceImpl@v8@@UEAA@XZ 0000000180001130 f i bufferutil.obj
 0001:00000140       ??0ExternalStringResourceBase@String@v8@@IEAA@XZ 0000000180001140 f i bufferutil.obj
 0001:00000150       ?Dispose@ExternalStringResourceBase@String@v8@@MEAAXXZ 0000000180001150 f i bufferutil.obj
 0001:00000170       ??0ExternalOneByteStringResource@String@v8@@IEAA@XZ 0000000180001170 f i bufferutil.obj
 0001:00000170       ??0ExternalStringResource@String@v8@@IEAA@XZ 0000000180001170 f i bufferutil.obj
 0001:00000180       ?length@Value@String@v8@@QEBAHXZ 0000000180001180 f i bufferutil.obj
 0001:00000180       ?length@Utf8Value@String@v8@@QEBAHXZ 0000000180001180 f i bufferutil.obj
 0001:00000180       ?max_executable_size@ResourceConstraints@v8@@QEBAHXZ 0000000180001180 f i bufferutil.obj
 0001:00000190       ??_EExternalStringResource@String@v8@@UEAAPEAXI@Z 0000000180001190 f i bufferutil.obj
 0001:00000190       ??_EExternalOneByteStringResource@String@v8@@UEAAPEAXI@Z 0000000180001190 f i bufferutil.obj
 0001:00000190       ??_EExternalStringResourceBase@String@v8@@UEAAPEAXI@Z 0000000180001190 f i bufferutil.obj
 0001:00000210       ?InternalFieldCount@Object@v8@@SAHAEBV?$PersistentBase@VObject@v8@@@2@@Z 0000000180001210 f i bufferutil.obj
 0001:00000220       ?GetAlignedPointerFromInternalField@Object@v8@@SAPEAXAEBV?$PersistentBase@VObject@v8@@@2@H@Z 0000000180001220 f i bufferutil.obj
 0001:00000250       ?NewInstance@Function@v8@@QEBA?AV?$MaybeLocal@VObject@v8@@@2@V?$Local@VContext@v8@@@2@@Z 0000000180001250 f i bufferutil.obj
 0001:00000280       ??1Allocator@ArrayBuffer@v8@@UEAA@XZ 0000000180001280 f i bufferutil.obj
 0001:00000290       ??0Contents@SharedArrayBuffer@v8@@QEAA@XZ 0000000180001290 f i bufferutil.obj
 0001:00000290       ??0Contents@ArrayBuffer@v8@@QEAA@XZ 0000000180001290 f i bufferutil.obj
 0001:000002a0       ?data@ExternalOneByteStringResourceImpl@v8@@UEBAPEBDXZ 00000001800012a0 f i bufferutil.obj
 0001:000002a0       ?name@Extension@v8@@QEBAPEBDXZ 00000001800012a0 f i bufferutil.obj
 0001:000002a0       ?ByteLength@Contents@ArrayBuffer@v8@@QEBA_KXZ 00000001800012a0 f i bufferutil.obj
 0001:000002a0       ?space_size@HeapSpaceStatistics@v8@@QEAA_KXZ 00000001800012a0 f i bufferutil.obj
 0001:000002a0       ?ByteLength@Contents@SharedArrayBuffer@v8@@QEBA_KXZ 00000001800012a0 f i bufferutil.obj
 0001:000002a0       ?begin@ExtensionConfiguration@v8@@QEBAPEAPEBDXZ 00000001800012a0 f i bufferutil.obj
 0001:000002a0       ?object_sub_type@HeapObjectStatistics@v8@@QEAAPEBDXZ 00000001800012a0 f i bufferutil.obj
 0001:000002a0       ?total_heap_size_executable@HeapStatistics@v8@@QEAA_KXZ 00000001800012a0 f i bufferutil.obj
 0001:000002b0       ??0Allocator@ArrayBuffer@v8@@QEAA@XZ 00000001800012b0 f i bufferutil.obj
 0001:000002b0       ??0Allocator@ArrayBuffer@v8@@QEAA@AEBV012@@Z 00000001800012b0 f i bufferutil.obj
 0001:000002c0       ??_EAllocator@ArrayBuffer@v8@@UEAAPEAXI@Z 00000001800012c0 f i bufferutil.obj
 0001:00000340       ??4Contents@ArrayBuffer@v8@@QEAAAEAV012@AEBV012@@Z 0000000180001340 f i bufferutil.obj
 0001:00000340       ??4StartupData@v8@@QEAAAEAV01@AEBV01@@Z 0000000180001340 f i bufferutil.obj
 0001:00000340       ??4Contents@SharedArrayBuffer@v8@@QEAAAEAV012@AEBV012@@Z 0000000180001340 f i bufferutil.obj
 0001:00000350       ?SetIndexedPropertyHandler@ObjectTemplate@v8@@QEAAXP6AXIAEBV?$PropertyCallbackInfo@VValue@v8@@@2@@ZP6AXIV?$Local@VValue@v8@@@2@0@ZP6AXIAEBV?$PropertyCallbackInfo@VInteger@v8@@@2@@ZP6AXIAEBV?$PropertyCallbackInfo@VBoolean@v8@@@2@@ZP6AXAEBV?$PropertyCallbackInfo@VArray@v8@@@2@@Z2@Z 0000000180001350 f i bufferutil.obj
 0001:000003a0       ??0ExternalOneByteStringResourceImpl@v8@@QEAA@XZ 00000001800013a0 f i bufferutil.obj
 0001:000003c0       ??0ExternalOneByteStringResourceImpl@v8@@QEAA@PEBD_K@Z 00000001800013c0 f i bufferutil.obj
 0001:000003e0       ?space_used_size@HeapSpaceStatistics@v8@@QEAA_KXZ 00000001800013e0 f i bufferutil.obj
 0001:000003e0       ?length@ExternalOneByteStringResourceImpl@v8@@UEBA_KXZ 00000001800013e0 f i bufferutil.obj
 0001:000003e0       ?stack_limit@ResourceConstraints@v8@@QEBAPEAIXZ 00000001800013e0 f i bufferutil.obj
 0001:000003e0       ?total_physical_size@HeapStatistics@v8@@QEAA_KXZ 00000001800013e0 f i bufferutil.obj
 0001:000003e0       ?object_count@HeapObjectStatistics@v8@@QEAA_KXZ 00000001800013e0 f i bufferutil.obj
 0001:000003e0       ?source_length@Extension@v8@@QEBA_KXZ 00000001800013e0 f i bufferutil.obj
 0001:000003f0       ??_EExternalOneByteStringResourceImpl@v8@@UEAAPEAXI@Z 00000001800013f0 f i bufferutil.obj
 0001:00000470       ??1Extension@v8@@UEAA@XZ   0000000180001470 f i bufferutil.obj
 0001:00000490       ?GetNativeFunctionTemplate@Extension@v8@@UEAA?AV?$Local@VFunctionTemplate@v8@@@2@PEAVIsolate@2@V?$Local@VString@v8@@@2@@Z 0000000180001490 f i bufferutil.obj
 0001:000004a0       ?source@Extension@v8@@QEBAPEBVExternalOneByteStringResource@String@2@XZ 00000001800014a0 f i bufferutil.obj
 0001:000004b0       ?dependency_count@Extension@v8@@QEAAHXZ 00000001800014b0 f i bufferutil.obj
 0001:000004c0       ?dependencies@Extension@v8@@QEAAPEAPEBDXZ 00000001800014c0 f i bufferutil.obj
 0001:000004d0       ?set_auto_enable@Extension@v8@@QEAAX_N@Z 00000001800014d0 f i bufferutil.obj
 0001:000004e0       ?auto_enable@Extension@v8@@QEAA_NXZ 00000001800014e0 f i bufferutil.obj
 0001:000004f0       ??_EExtension@v8@@UEAAPEAXI@Z 00000001800014f0 f i bufferutil.obj
 0001:00000590       ?max_semi_space_size@ResourceConstraints@v8@@QEBAHXZ 0000000180001590 f i bufferutil.obj
 0001:000005a0       ?set_max_semi_space_size@ResourceConstraints@v8@@QEAAXH@Z 00000001800015a0 f i bufferutil.obj
 0001:000005b0       ?max_old_space_size@ResourceConstraints@v8@@QEBAHXZ 00000001800015b0 f i bufferutil.obj
 0001:000005c0       ?set_max_old_space_size@ResourceConstraints@v8@@QEAAXH@Z 00000001800015c0 f i bufferutil.obj
 0001:000005d0       ?set_max_executable_size@ResourceConstraints@v8@@QEAAXH@Z 00000001800015d0 f i bufferutil.obj
 0001:000005e0       ?set_stack_limit@ResourceConstraints@v8@@QEAAXPEAI@Z 00000001800015e0 f i bufferutil.obj
 0001:000005f0       ?code_range_size@ResourceConstraints@v8@@QEBA_KXZ 00000001800015f0 f i bufferutil.obj
 0001:000005f0       ?space_available_size@HeapSpaceStatistics@v8@@QEAA_KXZ 00000001800015f0 f i bufferutil.obj
 0001:000005f0       ?total_available_size@HeapStatistics@v8@@QEAA_KXZ 00000001800015f0 f i bufferutil.obj
 0001:000005f0       ?object_size@HeapObjectStatistics@v8@@QEAA_KXZ 00000001800015f0 f i bufferutil.obj
 0001:00000600       ?set_code_range_size@ResourceConstraints@v8@@QEAAX_K@Z 0000000180001600 f i bufferutil.obj
 0001:00000610       ??4ResourceConstraints@v8@@QEAAAEAV01@AEBV01@@Z 0000000180001610 f i bufferutil.obj
 0001:00000610       ??4HeapObjectStatistics@v8@@QEAAAEAV01@AEBV01@@Z 0000000180001610 f i bufferutil.obj
 0001:00000630       ?physical_space_size@HeapSpaceStatistics@v8@@QEAA_KXZ 0000000180001630 f i bufferutil.obj
 0001:00000630       ?used_heap_size@HeapStatistics@v8@@QEAA_KXZ 0000000180001630 f i bufferutil.obj
 0001:00000640       ?heap_size_limit@HeapStatistics@v8@@QEAA_KXZ 0000000180001640 f i bufferutil.obj
 0001:00000650       ??4HeapStatistics@v8@@QEAAAEAV01@AEBV01@@Z 0000000180001650 f i bufferutil.obj
 0001:00000670       ??4HeapSpaceStatistics@v8@@QEAAAEAV01@AEBV01@@Z 0000000180001670 f i bufferutil.obj
 0001:00000690       ??1PersistentHandleVisitor@v8@@UEAA@XZ 0000000180001690 f i bufferutil.obj
 0001:00000690       ??1ExternalResourceVisitor@v8@@UEAA@XZ 0000000180001690 f i bufferutil.obj
 0001:000006a0       ??$destroy@PEAU?$_Tree_node@U?$pair@Q6AXAEBV?$FunctionCallbackInfo@VValue@v8@@@Nan@@@ZPEAUFunctionWrapper@imp@2@@std@@PEAX@std@@@?$_Wrap_alloc@V?$allocator@U?$_Tree_node@U?$pair@Q6AXAEBV?$FunctionCallbackInfo@VValue@v8@@@Nan@@@ZPEAUFunctionWrapper@imp@2@@std@@PEAX@std@@@std@@@std@@QEAAXPEAPEAU?$_Tree_node@U?$pair@Q6AXAEBV?$FunctionCallbackInfo@VValue@v8@@@Nan@@@ZPEAUFunctionWrapper@imp@2@@std@@PEAX@1@@Z 00000001800016a0 f i bufferutil.obj
 0001:000006a0       ?VisitExternalString@ExternalResourceVisitor@v8@@UEAAXV?$Local@VString@v8@@@2@@Z 00000001800016a0 f i bufferutil.obj
 0001:000006a0       ?VisitPersistentHandle@PersistentHandleVisitor@v8@@UEAAXPEAV?$Persistent@VValue@v8@@V?$NonCopyablePersistentTraits@VValue@v8@@@2@@2@G@Z 00000001800016a0 f i bufferutil.obj
 0001:000006b0       ??0PersistentHandleVisitor@v8@@QEAA@AEBV01@@Z 00000001800016b0 f i bufferutil.obj
 0001:000006b0       ??0ExternalResourceVisitor@v8@@QEAA@XZ 00000001800016b0 f i bufferutil.obj
 0001:000006b0       ??0ExternalResourceVisitor@v8@@QEAA@AEBV01@@Z 00000001800016b0 f i bufferutil.obj
 0001:000006b0       ??0PersistentHandleVisitor@v8@@QEAA@XZ 00000001800016b0 f i bufferutil.obj
 0001:000006c0       ??_EPersistentHandleVisitor@v8@@UEAAPEAXI@Z 00000001800016c0 f i bufferutil.obj
 0001:000006c0       ??_EExternalResourceVisitor@v8@@UEAAPEAXI@Z 00000001800016c0 f i bufferutil.obj
 0001:00000740       ??0Scope@Isolate@v8@@QEAA@PEAV12@@Z 0000000180001740 f i bufferutil.obj
 0001:00000760       ??1Scope@Isolate@v8@@QEAA@XZ 0000000180001760 f i bufferutil.obj
 0001:00000770       ?JSStackComparableAddress@TryCatch@v8@@SAPEAXPEAV12@@Z 0000000180001770 f i bufferutil.obj
 0001:00000780       ??0ExtensionConfiguration@v8@@QEAA@XZ 0000000180001780 f i bufferutil.obj
 0001:00000790       ??0ExtensionConfiguration@v8@@QEAA@HQEAPEBD@Z 0000000180001790 f i bufferutil.obj
 0001:000007a0       ?end@ExtensionConfiguration@v8@@QEBAPEAPEBDXZ 00000001800017a0 f i bufferutil.obj
 0001:000007b0       ??0Unlocker@v8@@QEAA@PEAVIsolate@1@@Z 00000001800017b0 f i bufferutil.obj
 0001:000007d0       ??4Unlocker@v8@@QEAAAEAV01@AEBV01@@Z 00000001800017d0 f i bufferutil.obj
 0001:000007e0       ??0Locker@v8@@QEAA@PEAVIsolate@1@@Z 00000001800017e0 f i bufferutil.obj
 0001:00000800       ?New@Boolean@v8@@SA?AV?$Local@VBoolean@v8@@@2@PEAVIsolate@2@_N@Z 0000000180001800 f i bufferutil.obj
 0001:00000830       ?Set@Template@v8@@QEAAXPEAVIsolate@2@PEBDV?$Local@VData@v8@@@2@@Z 0000000180001830 f i bufferutil.obj
 0001:00000890       ?GetInternalField@Object@v8@@QEAA?AV?$Local@VValue@v8@@@2@H@Z 0000000180001890 f i bufferutil.obj
 0001:000008e0       ?GetAlignedPointerFromInternalField@Object@v8@@QEAAPEAXH@Z 00000001800018e0 f i bufferutil.obj
 0001:00000900       ?Empty@String@v8@@SA?AV?$Local@VString@v8@@@2@PEAVIsolate@2@@Z 0000000180001900 f i bufferutil.obj
 0001:00000910       ?GetExternalStringResource@String@v8@@QEBAPEAVExternalStringResource@12@XZ 0000000180001910 f i bufferutil.obj
 0001:00000930       ?GetExternalStringResourceBase@String@v8@@QEBAPEAVExternalStringResourceBase@12@PEAW4Encoding@12@@Z 0000000180001930 f i bufferutil.obj
 0001:00000960       ?IsUndefined@Value@v8@@QEBA_NXZ 0000000180001960 f i bufferutil.obj
 0001:00000990       ?QuickIsUndefined@Value@v8@@AEBA_NXZ 0000000180001990 f i bufferutil.obj
 0001:000009c0       ?IsNull@Value@v8@@QEBA_NXZ 00000001800019c0 f i bufferutil.obj
 0001:000009f0       ?QuickIsNull@Value@v8@@AEBA_NXZ 00000001800019f0 f i bufferutil.obj
 0001:00000a20       ?IsString@Value@v8@@QEBA_NXZ 0000000180001a20 f i bufferutil.obj
 0001:00000a50       ?QuickIsString@Value@v8@@AEBA_NXZ 0000000180001a50 f i bufferutil.obj
 0001:00000a80       ?ToBoolean@Value@v8@@QEBA?AV?$Local@VBoolean@v8@@@2@XZ 0000000180001a80 f i bufferutil.obj
 0001:00000af0       ?ToNumber@Value@v8@@QEBA?AV?$Local@VNumber@v8@@@2@XZ 0000000180001af0 f i bufferutil.obj
 0001:00000b60       ?ToString@Value@v8@@QEBA?AV?$Local@VString@v8@@@2@XZ 0000000180001b60 f i bufferutil.obj
 0001:00000bd0       ?ToDetailString@Value@v8@@QEBA?AV?$Local@VString@v8@@@2@XZ 0000000180001bd0 f i bufferutil.obj
 0001:00000c40       ?ToObject@Value@v8@@QEBA?AV?$Local@VObject@v8@@@2@XZ 0000000180001c40 f i bufferutil.obj
 0001:00000cb0       ?ToInteger@Value@v8@@QEBA?AV?$Local@VInteger@v8@@@2@XZ 0000000180001cb0 f i bufferutil.obj
 0001:00000d20       ?ToUint32@Value@v8@@QEBA?AV?$Local@VUint32@v8@@@2@XZ 0000000180001d20 f i bufferutil.obj
 0001:00000d90       ?ToInt32@Value@v8@@QEBA?AV?$Local@VInt32@v8@@@2@XZ 0000000180001d90 f i bufferutil.obj
 0001:00000e00       ?SetData@Isolate@v8@@QEAAXIPEAX@Z 0000000180001e00 f i bufferutil.obj
 0001:00000e10       ?GetData@Isolate@v8@@QEAAPEAXI@Z 0000000180001e10 f i bufferutil.obj
 0001:00000e20       ?GetNumberOfDataSlots@Isolate@v8@@SAIXZ 0000000180001e20 f i bufferutil.obj
 0001:00000e30       ?AdjustAmountOfExternalAllocatedMemory@Isolate@v8@@QEAA_J_J@Z 0000000180001e30 f i bufferutil.obj
 0001:00000e90       ?GetEmbedderData@Context@v8@@QEAA?AV?$Local@VValue@v8@@@2@H@Z 0000000180001e90 f i bufferutil.obj
 0001:00000ec0       ?GetAlignedPointerFromEmbedderData@Context@v8@@QEAAPEAXH@Z 0000000180001ec0 f i bufferutil.obj
 0001:00000ee0       ?SetAllowCodeGenerationFromStringsCallback@V8@v8@@SAXP6A_NV?$Local@VContext@v8@@@2@@Z@Z 0000000180001ee0 f i bufferutil.obj
 0001:00000f10       ?IsDead@V8@v8@@SA_NXZ      0000000180001f10 f i bufferutil.obj
 0001:00000f30       ?AddMessageListener@V8@v8@@SA_NP6AXV?$Local@VMessage@v8@@@2@V?$Local@VValue@v8@@@2@@Z1@Z 0000000180001f30 f i bufferutil.obj
 0001:00000f60       ?RemoveMessageListeners@V8@v8@@SAXP6AXV?$Local@VMessage@v8@@@2@V?$Local@VValue@v8@@@2@@Z@Z 0000000180001f60 f i bufferutil.obj
 0001:00000f90       ?SetFailedAccessCheckCallbackFunction@V8@v8@@SAXP6AXV?$Local@VObject@v8@@@2@W4AccessType@2@V?$Local@VValue@v8@@@2@@Z@Z 0000000180001f90 f i bufferutil.obj
 0001:00000fc0       ?SetCaptureStackTraceForUncaughtExceptions@V8@v8@@SAX_NHW4StackTraceOptions@StackTrace@2@@Z 0000000180001fc0 f i bufferutil.obj
 0001:00001000       ?SetFatalErrorHandler@V8@v8@@SAXP6AXPEBD0@Z@Z 0000000180002000 f i bufferutil.obj
 0001:00001030       ?RemoveGCPrologueCallback@V8@v8@@SAXP6AXW4GCType@2@W4GCCallbackFlags@2@@Z@Z 0000000180002030 f i bufferutil.obj
 0001:00001060       ?RemoveGCEpilogueCallback@V8@v8@@SAXP6AXW4GCType@2@W4GCCallbackFlags@2@@Z@Z 0000000180002060 f i bufferutil.obj
 0001:00001090       ?AddMemoryAllocationCallback@V8@v8@@SAXP6AXW4ObjectSpace@2@W4AllocationAction@2@H@Z01@Z 0000000180002090 f i bufferutil.obj
 0001:000010d0       ?RemoveMemoryAllocationCallback@V8@v8@@SAXP6AXW4ObjectSpace@2@W4AllocationAction@2@H@Z@Z 00000001800020d0 f i bufferutil.obj
 0001:00001100       ?TerminateExecution@V8@v8@@SAXPEAVIsolate@2@@Z 0000000180002100 f i bufferutil.obj
 0001:00001110       ?IsExecutionTerminating@V8@v8@@SA_NPEAVIsolate@2@@Z 0000000180002110 f i bufferutil.obj
 0001:00001130       ?CancelTerminateExecution@V8@v8@@SAXPEAVIsolate@2@@Z 0000000180002130 f i bufferutil.obj
 0001:00001140       ?VisitExternalResources@V8@v8@@SAXPEAVExternalResourceVisitor@2@@Z 0000000180002140 f i bufferutil.obj
 0001:00001170       ?VisitHandlesWithClassIds@V8@v8@@SAXPEAVPersistentHandleVisitor@2@@Z 0000000180002170 f i bufferutil.obj
 0001:000011a0       ?VisitHandlesWithClassIds@V8@v8@@SAXPEAVIsolate@2@PEAVPersistentHandleVisitor@2@@Z 00000001800021a0 f i bufferutil.obj
 0001:000011b0       ?VisitHandlesForPartialDependence@V8@v8@@SAXPEAVIsolate@2@PEAVPersistentHandleVisitor@2@@Z 00000001800021b0 f i bufferutil.obj
 0001:000011c0       ?Wrap@ObjectWrap@node@@IEAAXV?$Local@VObject@v8@@@v8@@@Z 00000001800021c0 f i bufferutil.obj
 0001:00001290       ?Ref@ObjectWrap@node@@MEAAXXZ 0000000180002290 f i bufferutil.obj
 0001:000012d0       ?Unref@ObjectWrap@node@@MEAAXXZ 00000001800022d0 f i bufferutil.obj
 0001:00001380       ?WeakCallback@ObjectWrap@node@@CAXAEBV?$WeakCallbackData@VObject@v8@@VObjectWrap@node@@@v8@@@Z 0000000180002380 f i bufferutil.obj
 0001:00001490       ??_GBufferUtil@@UEAAPEAXI@Z 0000000180002490 f i bufferutil.obj
 0001:00001490       ??_EObjectWrap@node@@UEAAPEAXI@Z 0000000180002490 f i * CIL library *:* CIL module *
 0001:00001490       ??_GObjectWrap@node@@UEAAPEAXI@Z 0000000180002490 f i bufferutil.obj
 0001:00001490       ??_EBufferUtil@@UEAAPEAXI@Z 0000000180002490 f i * CIL library *:* CIL module *
 0001:000015b0       ?New@?$Factory@VFunctionTemplate@v8@@@imp@Nan@@SA?AV?$Local@VFunctionTemplate@v8@@@v8@@P6AXAEBV?$FunctionCallbackInfo@VValue@v8@@@3@@ZV?$Local@VValue@v8@@@5@V?$Local@VSignature@v8@@@5@@Z 00000001800025b0 f i bufferutil.obj
 0001:00001760       ?Initialize@BufferUtil@@SAXV?$Local@VObject@v8@@@v8@@@Z 0000000180002760 f i bufferutil.obj
 0001:00001a10       ?New@BufferUtil@@KAXAEBV?$FunctionCallbackInfo@VValue@v8@@@Nan@@@Z 0000000180002a10 f i bufferutil.obj
 0001:00001ab0       ?Merge@BufferUtil@@KAXAEBV?$FunctionCallbackInfo@VValue@v8@@@Nan@@@Z 0000000180002ab0 f i bufferutil.obj
 0001:00001cc0       ?Unmask@BufferUtil@@KAXAEBV?$FunctionCallbackInfo@VValue@v8@@@Nan@@@Z 0000000180002cc0 f i bufferutil.obj
 0001:00001e50       ?Mask@BufferUtil@@KAXAEBV?$FunctionCallbackInfo@VValue@v8@@@Nan@@@Z 0000000180002e50 f i bufferutil.obj
 0001:000020d0       ?init@@YAXV?$Local@VObject@v8@@@v8@@@Z 00000001800030d0 f   bufferutil.obj
 0001:00002120       ?erase@?$_Tree@V?$_Tmap_traits@P6AXAEBV?$FunctionCallbackInfo@VValue@v8@@@Nan@@@ZPEAUFunctionWrapper@imp@2@U?$less@P6AXAEBV?$FunctionCallbackInfo@VValue@v8@@@Nan@@@Z@std@@V?$allocator@U?$pair@Q6AXAEBV?$FunctionCallbackInfo@VValue@v8@@@Nan@@@ZPEAUFunctionWrapper@imp@2@@std@@@6@$0A@@std@@@std@@QEAA?AV?$_Tree_iterator@V?$_Tree_val@U?$_Tree_simple_types@U?$pair@Q6AXAEBV?$FunctionCallbackInfo@VValue@v8@@@Nan@@@ZPEAUFunctionWrapper@imp@2@@std@@@std@@@std@@@2@V?$_Tree_const_iterator@V?$_Tree_val@U?$_Tree_simple_types@U?$pair@Q6AXAEBV?$FunctionCallbackInfo@VValue@v8@@@Nan@@@ZPEAUFunctionWrapper@imp@2@@std@@@std@@@std@@@2@0@Z 0000000180003120 f i bufferutil.obj
 0001:00002250       ?erase@?$_Tree@V?$_Tmap_traits@P6AXAEBV?$FunctionCallbackInfo@VValue@v8@@@Nan@@@ZPEAUFunctionWrapper@imp@2@U?$less@P6AXAEBV?$FunctionCallbackInfo@VValue@v8@@@Nan@@@Z@std@@V?$allocator@U?$pair@Q6AXAEBV?$FunctionCallbackInfo@VValue@v8@@@Nan@@@ZPEAUFunctionWrapper@imp@2@@std@@@6@$0A@@std@@@std@@QEAA?AV?$_Tree_iterator@V?$_Tree_val@U?$_Tree_simple_types@U?$pair@Q6AXAEBV?$FunctionCallbackInfo@VValue@v8@@@Nan@@@ZPEAUFunctionWrapper@imp@2@@std@@@std@@@std@@@2@V?$_Tree_const_iterator@V?$_Tree_val@U?$_Tree_simple_types@U?$pair@Q6AXAEBV?$FunctionCallbackInfo@VValue@v8@@@Nan@@@ZPEAUFunctionWrapper@imp@2@@std@@@std@@@std@@@2@@Z 0000000180003250 f i bufferutil.obj
 0001:000026a0       ?_Erase@?$_Tree@V?$_Tmap_traits@P6AXAEBV?$FunctionCallbackInfo@VValue@v8@@@Nan@@@ZPEAUFunctionWrapper@imp@2@U?$less@P6AXAEBV?$FunctionCallbackInfo@VValue@v8@@@Nan@@@Z@std@@V?$allocator@U?$pair@Q6AXAEBV?$FunctionCallbackInfo@VValue@v8@@@Nan@@@ZPEAUFunctionWrapper@imp@2@@std@@@6@$0A@@std@@@std@@IEAAXPEAU?$_Tree_node@U?$pair@Q6AXAEBV?$FunctionCallbackInfo@VValue@v8@@@Nan@@@ZPEAUFunctionWrapper@imp@2@@std@@PEAX@2@@Z 00000001800036a0 f i bufferutil.obj
 0001:000026f0       ?_Lrotate@?$_Tree@V?$_Tmap_traits@P6AXAEBV?$FunctionCallbackInfo@VValue@v8@@@Nan@@@ZPEAUFunctionWrapper@imp@2@U?$less@P6AXAEBV?$FunctionCallbackInfo@VValue@v8@@@Nan@@@Z@std@@V?$allocator@U?$pair@Q6AXAEBV?$FunctionCallbackInfo@VValue@v8@@@Nan@@@ZPEAUFunctionWrapper@imp@2@@std@@@6@$0A@@std@@@std@@IEAAXPEAU?$_Tree_node@U?$pair@Q6AXAEBV?$FunctionCallbackInfo@VValue@v8@@@Nan@@@ZPEAUFunctionWrapper@imp@2@@std@@PEAX@2@@Z 00000001800036f0 f i bufferutil.obj
 0001:00002750       ?_Rrotate@?$_Tree@V?$_Tmap_traits@P6AXAEBV?$FunctionCallbackInfo@VValue@v8@@@Nan@@@ZPEAUFunctionWrapper@imp@2@U?$less@P6AXAEBV?$FunctionCallbackInfo@VValue@v8@@@Nan@@@Z@std@@V?$allocator@U?$pair@Q6AXAEBV?$FunctionCallbackInfo@VValue@v8@@@Nan@@@ZPEAUFunctionWrapper@imp@2@@std@@@6@$0A@@std@@@std@@IEAAXPEAU?$_Tree_node@U?$pair@Q6AXAEBV?$FunctionCallbackInfo@VValue@v8@@@Nan@@@ZPEAUFunctionWrapper@imp@2@@std@@PEAX@2@@Z 0000000180003750 f i bufferutil.obj
 0001:000027b0       ??$GetWrapper@P6AXAEBV?$FunctionCallbackInfo@VValue@v8@@@Nan@@@ZUFunctionWrapper@imp@2@@imp@Nan@@YAPEAUFunctionWrapper@01@P6AXAEBV?$FunctionCallbackInfo@VValue@v8@@@1@@Z@Z 00000001800037b0 f i bufferutil.obj
 0001:00002940       ??$_Insert_hint@AEAU?$pair@Q6AXAEBV?$FunctionCallbackInfo@VValue@v8@@@Nan@@@ZPEAUFunctionWrapper@imp@2@@std@@PEAU?$_Tree_node@U?$pair@Q6AXAEBV?$FunctionCallbackInfo@VValue@v8@@@Nan@@@ZPEAUFunctionWrapper@imp@2@@std@@PEAX@2@@?$_Tree@V?$_Tmap_traits@P6AXAEBV?$FunctionCallbackInfo@VValue@v8@@@Nan@@@ZPEAUFunctionWrapper@imp@2@U?$less@P6AXAEBV?$FunctionCallbackInfo@VValue@v8@@@Nan@@@Z@std@@V?$allocator@U?$pair@Q6AXAEBV?$FunctionCallbackInfo@VValue@v8@@@Nan@@@ZPEAUFunctionWrapper@imp@2@@std@@@6@$0A@@std@@@std@@IEAA?AV?$_Tree_iterator@V?$_Tree_val@U?$_Tree_simple_types@U?$pair@Q6AXAEBV?$FunctionCallbackInfo@VValue@v8@@@Nan@@@ZPEAUFunctionWrapper@imp@2@@std@@@std@@@std@@@1@V?$_Tree_const_iterator@V?$_Tree_val@U?$_Tree_simple_types@U?$pair@Q6AXAEBV?$FunctionCallbackInfo@VValue@v8@@@Nan@@@ZPEAUFunctionWrapper@imp@2@@std@@@std@@@std@@@1@AEAU?$pair@Q6AXAEBV?$FunctionCallbackInfo@VValue@v8@@@Nan@@@ZPEAUFunctionWrapper@imp@2@@1@PEAU?$_Tree_node@U?$pair@Q6AXAEBV?$FunctionCallbackInfo@VValue@v8@@@Nan@@@ZPEAUFunctionWrapper@imp@2@@std@@PEAX@1@@Z 0000000180003940 f i bufferutil.obj
 0001:00002b30       ??F?$_Tree_const_iterator@V?$_Tree_val@U?$_Tree_simple_types@U?$pair@Q6AXAEBV?$FunctionCallbackInfo@VValue@v8@@@Nan@@@ZPEAUFunctionWrapper@imp@2@@std@@@std@@@std@@@std@@QEAAAEAV01@XZ 0000000180003b30 f i bufferutil.obj
 0001:00002bb0       ??$_Insert_at@AEAU?$pair@Q6AXAEBV?$FunctionCallbackInfo@VValue@v8@@@Nan@@@ZPEAUFunctionWrapper@imp@2@@std@@PEAU?$_Tree_node@U?$pair@Q6AXAEBV?$FunctionCallbackInfo@VValue@v8@@@Nan@@@ZPEAUFunctionWrapper@imp@2@@std@@PEAX@2@@?$_Tree@V?$_Tmap_traits@P6AXAEBV?$FunctionCallbackInfo@VValue@v8@@@Nan@@@ZPEAUFunctionWrapper@imp@2@U?$less@P6AXAEBV?$FunctionCallbackInfo@VValue@v8@@@Nan@@@Z@std@@V?$allocator@U?$pair@Q6AXAEBV?$FunctionCallbackInfo@VValue@v8@@@Nan@@@ZPEAUFunctionWrapper@imp@2@@std@@@6@$0A@@std@@@std@@IEAA?AV?$_Tree_iterator@V?$_Tree_val@U?$_Tree_simple_types@U?$pair@Q6AXAEBV?$FunctionCallbackInfo@VValue@v8@@@Nan@@@ZPEAUFunctionWrapper@imp@2@@std@@@std@@@std@@@1@_NPEAU?$_Tree_node@U?$pair@Q6AXAEBV?$FunctionCallbackInfo@VValue@v8@@@Nan@@@ZPEAUFunctionWrapper@imp@2@@std@@PEAX@1@AEAU?$pair@Q6AXAEBV?$FunctionCallbackInfo@VValue@v8@@@Nan@@@ZPEAUFunctionWrapper@imp@2@@1@1@Z 0000000180003bb0 f i bufferutil.obj
 0001:00002e90       ??$_Insert_nohint@AEAU?$pair@Q6AXAEBV?$FunctionCallbackInfo@VValue@v8@@@Nan@@@ZPEAUFunctionWrapper@imp@2@@std@@PEAU?$_Tree_node@U?$pair@Q6AXAEBV?$FunctionCallbackInfo@VValue@v8@@@Nan@@@ZPEAUFunctionWrapper@imp@2@@std@@PEAX@2@@?$_Tree@V?$_Tmap_traits@P6AXAEBV?$FunctionCallbackInfo@VValue@v8@@@Nan@@@ZPEAUFunctionWrapper@imp@2@U?$less@P6AXAEBV?$FunctionCallbackInfo@VValue@v8@@@Nan@@@Z@std@@V?$allocator@U?$pair@Q6AXAEBV?$FunctionCallbackInfo@VValue@v8@@@Nan@@@ZPEAUFunctionWrapper@imp@2@@std@@@6@$0A@@std@@@std@@IEAA?AU?$pair@V?$_Tree_iterator@V?$_Tree_val@U?$_Tree_simple_types@U?$pair@Q6AXAEBV?$FunctionCallbackInfo@VValue@v8@@@Nan@@@ZPEAUFunctionWrapper@imp@2@@std@@@std@@@std@@@std@@_N@1@_NAEAU?$pair@Q6AXAEBV?$FunctionCallbackInfo@VValue@v8@@@Nan@@@ZPEAUFunctionWrapper@imp@2@@1@PEAU?$_Tree_node@U?$pair@Q6AXAEBV?$FunctionCallbackInfo@VValue@v8@@@Nan@@@ZPEAUFunctionWrapper@imp@2@@std@@PEAX@1@@Z 0000000180003e90 f i bufferutil.obj
 0001:00002ffc       __imp_load_?Length@Buffer@node@@YA_KV?$Local@VObject@v8@@@v8@@@Z 0000000180003ffc f   node:node.exe
 0001:00003008       __tailMerge_node_exe       0000000180004008 f i node:node.exe
 0001:00003081       __imp_load_?Data@Buffer@node@@YAPEADV?$Local@VObject@v8@@@v8@@@Z 0000000180004081 f   node:node.exe
 0001:0000308d       __imp_load_node_module_register 000000018000408d f   node:node.exe
 0001:00003099       __imp_load_?Initialize@Locker@v8@@AEAAXPEAVIsolate@2@@Z 0000000180004099 f   node:node.exe
 0001:000030a5       __imp_load_?ToLocalEmpty@V8@v8@@CAXXZ 00000001800040a5 f   node:node.exe
 0001:000030b1       __imp_load_?ClearWeak@V8@v8@@CAPEAXPEAPEAVObject@internal@2@@Z 00000001800040b1 f   node:node.exe
 0001:000030bd       __imp_load_?MakeWeak@V8@v8@@CAXPEAPEAVObject@internal@2@PEAXP6AXAEBV?$WeakCallbackData@VValue@v8@@X@2@@Z@Z 00000001800040bd f   node:node.exe
 0001:000030c9       __imp_load_?DisposeGlobal@V8@v8@@CAXPEAPEAVObject@internal@2@@Z 00000001800040c9 f   node:node.exe
 0001:000030d5       __imp_load_?GlobalizeReference@V8@v8@@CAPEAPEAVObject@internal@2@PEAVIsolate@42@PEAPEAV342@@Z 00000001800040d5 f   node:node.exe
 0001:000030e1       __imp_load_?Escape@EscapableHandleScope@v8@@AEAAPEAPEAVObject@internal@2@PEAPEAV342@@Z 00000001800040e1 f   node:node.exe
 0001:000030ed       __imp_load_??0EscapableHandleScope@v8@@QEAA@PEAVIsolate@1@@Z 00000001800040ed f   node:node.exe
 0001:000030f9       __imp_load_?Int32Value@Value@v8@@QEBAHXZ 00000001800040f9 f   node:node.exe
 0001:00003105       __imp_load_?ToInt32@Value@v8@@QEBA?AV?$MaybeLocal@VInt32@v8@@@2@V?$Local@VContext@v8@@@2@@Z 0000000180004105 f   node:node.exe
 0001:00003111       __imp_load_?ToUint32@Value@v8@@QEBA?AV?$MaybeLocal@VUint32@v8@@@2@V?$Local@VContext@v8@@@2@@Z 0000000180004111 f   node:node.exe
 0001:0000311d       __imp_load_?ToInteger@Value@v8@@QEBA?AV?$MaybeLocal@VInteger@v8@@@2@V?$Local@VContext@v8@@@2@@Z 000000018000411d f   node:node.exe
 0001:00003129       __imp_load_?ToObject@Value@v8@@QEBA?AV?$MaybeLocal@VObject@v8@@@2@V?$Local@VContext@v8@@@2@@Z 0000000180004129 f   node:node.exe
 0001:00003135       __imp_load_?ToDetailString@Value@v8@@QEBA?AV?$MaybeLocal@VString@v8@@@2@V?$Local@VContext@v8@@@2@@Z 0000000180004135 f   node:node.exe
 0001:00003141       __imp_load_?ToString@Value@v8@@QEBA?AV?$MaybeLocal@VString@v8@@@2@V?$Local@VContext@v8@@@2@@Z 0000000180004141 f   node:node.exe
 0001:0000314d       __imp_load_?ToNumber@Value@v8@@QEBA?AV?$MaybeLocal@VNumber@v8@@@2@V?$Local@VContext@v8@@@2@@Z 000000018000414d f   node:node.exe
 0001:00003159       __imp_load_?ToBoolean@Value@v8@@QEBA?AV?$MaybeLocal@VBoolean@v8@@@2@V?$Local@VContext@v8@@@2@@Z 0000000180004159 f   node:node.exe
 0001:00003165       __imp_load_?InstanceTemplate@FunctionTemplate@v8@@QEAA?AV?$Local@VObjectTemplate@v8@@@2@XZ 0000000180004165 f   node:node.exe
 0001:00003171       __imp_load_?GetFunction@FunctionTemplate@v8@@QEAA?AV?$Local@VFunction@v8@@@2@XZ 0000000180004171 f   node:node.exe
 0001:0000317d       __imp_load_?New@FunctionTemplate@v8@@SA?AV?$Local@VFunctionTemplate@v8@@@2@PEAVIsolate@2@P6AXAEBV?$FunctionCallbackInfo@VValue@v8@@@2@@ZV?$Local@VValue@v8@@@2@V?$Local@VSignature@v8@@@2@H@Z 000000018000417d f   node:node.exe
 0001:00003189       __imp_load_?NewFromUtf8@String@v8@@SA?AV?$MaybeLocal@VString@v8@@@2@PEAVIsolate@2@PEBDW4NewStringType@2@H@Z 0000000180004189 f   node:node.exe
 0001:00003195       __imp_load_?Length@Array@v8@@QEBAIXZ 0000000180004195 f   node:node.exe
 0001:000031a1       __imp_load_?CreateHandle@HandleScope@v8@@KAPEAPEAVObject@internal@2@PEAVIsolate@42@PEAV342@@Z 00000001800041a1 f   node:node.exe
 0001:000031ad       __imp_load_?CreateHandle@HandleScope@v8@@CAPEAPEAVObject@internal@2@PEAVHeapObject@42@PEAV342@@Z 00000001800041ad f   node:node.exe
 0001:000031b9       __imp_load_??1HandleScope@v8@@QEAA@XZ 00000001800041b9 f   node:node.exe
 0001:000031c5       __imp_load_??0HandleScope@v8@@QEAA@PEAVIsolate@1@@Z 00000001800041c5 f   node:node.exe
 0001:000031d1       __imp_load_?SlowGetAlignedPointerFromInternalField@Object@v8@@AEAAPEAXH@Z 00000001800041d1 f   node:node.exe
 0001:000031dd       __imp_load_?SlowGetInternalField@Object@v8@@AEAA?AV?$Local@VValue@v8@@@2@H@Z 00000001800041dd f   node:node.exe
 0001:000031e9       __imp_load_?SetAlignedPointerInInternalField@Object@v8@@QEAAXHPEAX@Z 00000001800041e9 f   node:node.exe
 0001:000031f5       __imp_load_?SetInternalField@Object@v8@@QEAAXHV?$Local@VValue@v8@@@2@@Z 00000001800041f5 f   node:node.exe
 0001:00003201       __imp_load_?InternalFieldCount@Object@v8@@QEAAHXZ 0000000180004201 f   node:node.exe
 0001:0000320d       __imp_load_?Get@Object@v8@@QEAA?AV?$Local@VValue@v8@@@2@I@Z 000000018000420d f   node:node.exe
 0001:00003219       __imp_load_?Set@Object@v8@@QEAA?AV?$Maybe@_N@2@V?$Local@VContext@v8@@@2@V?$Local@VValue@v8@@@2@1@Z 0000000180004219 f   node:node.exe
 0001:00003225       __imp_load_?Initialize@Unlocker@v8@@AEAAXPEAVIsolate@2@@Z 0000000180004225 f   node:node.exe
 0001:00003231       __imp_load_?Set@Template@v8@@QEAAXV?$Local@VName@v8@@@2@V?$Local@VData@v8@@@2@W4PropertyAttribute@2@@Z 0000000180004231 f   node:node.exe
 0001:0000323d       __imp_load_?SetInternalFieldCount@ObjectTemplate@v8@@QEAAXH@Z 000000018000423d f   node:node.exe
 0001:00003249       __imp_load_?SetHandler@ObjectTemplate@v8@@QEAAXAEBUIndexedPropertyHandlerConfiguration@2@@Z 0000000180004249 f   node:node.exe
 0001:00003255       __imp_load_?NewInstance@ObjectTemplate@v8@@QEAA?AV?$MaybeLocal@VObject@v8@@@2@V?$Local@VContext@v8@@@2@@Z 0000000180004255 f   node:node.exe
 0001:00003261       __imp_load_?New@ObjectTemplate@v8@@SA?AV?$Local@VObjectTemplate@v8@@@2@PEAVIsolate@2@V?$Local@VFunctionTemplate@v8@@@2@@Z 0000000180004261 f   node:node.exe
 0001:0000326d       __imp_load_?SetName@Function@v8@@QEAAXV?$Local@VString@v8@@@2@@Z 000000018000426d f   node:node.exe
 0001:00003279       __imp_load_?NewInstance@Function@v8@@QEBA?AV?$MaybeLocal@VObject@v8@@@2@V?$Local@VContext@v8@@@2@HQEAV?$Local@VValue@v8@@@2@@Z 0000000180004279 f   node:node.exe
 0001:00003285       __imp_load_?CollectAllGarbage@Isolate@v8@@AEAAXPEBD@Z 0000000180004285 f   node:node.exe
 0001:00003291       __imp_load_?VisitHandlesForPartialDependence@Isolate@v8@@QEAAXPEAVPersistentHandleVisitor@2@@Z 0000000180004291 f   node:node.exe
 0001:0000329d       __imp_load_?VisitHandlesWithClassIds@Isolate@v8@@QEAAXPEAVPersistentHandleVisitor@2@@Z 000000018000429d f   node:node.exe
 0001:000032a9       __imp_load_?VisitExternalResources@Isolate@v8@@QEAAXPEAVExternalResourceVisitor@2@@Z 00000001800042a9 f   node:node.exe
 0001:000032b5       __imp_load_?RemoveMemoryAllocationCallback@Isolate@v8@@QEAAXP6AXW4ObjectSpace@2@W4AllocationAction@2@H@Z@Z 00000001800042b5 f   node:node.exe
 0001:000032c1       __imp_load_?AddMemoryAllocationCallback@Isolate@v8@@QEAAXP6AXW4ObjectSpace@2@W4AllocationAction@2@H@Z01@Z 00000001800042c1 f   node:node.exe
 0001:000032cd       __imp_load_?SetCaptureStackTraceForUncaughtExceptions@Isolate@v8@@QEAAX_NHW4StackTraceOptions@StackTrace@2@@Z 00000001800042cd f   node:node.exe
 0001:000032d9       __imp_load_?SetFailedAccessCheckCallbackFunction@Isolate@v8@@QEAAXP6AXV?$Local@VObject@v8@@@2@W4AccessType@2@V?$Local@VValue@v8@@@2@@Z@Z 00000001800042d9 f   node:node.exe
 0001:000032e5       __imp_load_?RemoveMessageListeners@Isolate@v8@@QEAAXP6AXV?$Local@VMessage@v8@@@2@V?$Local@VValue@v8@@@2@@Z@Z 00000001800042e5 f   node:node.exe
 0001:000032f1       __imp_load_?AddMessageListener@Isolate@v8@@QEAA_NP6AXV?$Local@VMessage@v8@@@2@V?$Local@VValue@v8@@@2@@Z1@Z 00000001800042f1 f   node:node.exe
 0001:000032fd       __imp_load_?IsDead@Isolate@v8@@QEAA_NXZ 00000001800042fd f   node:node.exe
 0001:00003309       __imp_load_?SetAllowCodeGenerationFromStringsCallback@Isolate@v8@@QEAAXP6A_NV?$Local@VContext@v8@@@2@@Z@Z 0000000180004309 f   node:node.exe
 0001:00003315       __imp_load_?SetFatalErrorHandler@Isolate@v8@@QEAAXP6AXPEBD0@Z@Z 0000000180004315 f   node:node.exe
 0001:00003321       __imp_load_?CancelTerminateExecution@Isolate@v8@@QEAAXXZ 0000000180004321 f   node:node.exe
 0001:0000332d       __imp_load_?IsExecutionTerminating@Isolate@v8@@QEAA_NXZ 000000018000432d f   node:node.exe
 0001:00003339       __imp_load_?TerminateExecution@Isolate@v8@@QEAAXXZ 0000000180004339 f   node:node.exe
 0001:00003345       __imp_load_?RemoveGCEpilogueCallback@Isolate@v8@@QEAAXP6AXPEAV12@W4GCType@2@W4GCCallbackFlags@2@@Z@Z 0000000180004345 f   node:node.exe
 0001:00003351       __imp_load_?RemoveGCPrologueCallback@Isolate@v8@@QEAAXP6AXPEAV12@W4GCType@2@W4GCCallbackFlags@2@@Z@Z 0000000180004351 f   node:node.exe
 0001:0000335d       __imp_load_?GetCurrentContext@Isolate@v8@@QEAA?AV?$Local@VContext@v8@@@2@XZ 000000018000435d f   node:node.exe
 0001:00003369       __imp_load_?Exit@Isolate@v8@@QEAAXXZ 0000000180004369 f   node:node.exe
 0001:00003375       __imp_load_?Enter@Isolate@v8@@QEAAXXZ 0000000180004375 f   node:node.exe
 0001:00003381       __imp_load_?GetCurrent@Isolate@v8@@SAPEAV12@XZ 0000000180004381 f   node:node.exe
 0001:0000338d       __imp_load_?ResetToBookmark@ExternalSourceStream@ScriptCompiler@v8@@UEAAXXZ 000000018000438d f   node:node.exe
 0001:00003399       ?ResetToBookmark@ExternalSourceStream@ScriptCompiler@v8@@UEAAXXZ 0000000180004399 f   node:node.exe
 0001:0000339f       __imp_load_?SetBookmark@ExternalSourceStream@ScriptCompiler@v8@@UEAA_NXZ 000000018000439f f   node:node.exe
 0001:000033ab       ?SetBookmark@ExternalSourceStream@ScriptCompiler@v8@@UEAA_NXZ 00000001800043ab f   node:node.exe
 0001:000033b4       ??0bad_alloc@std@@QEAA@AEBV01@@Z 00000001800043b4 f i libcpmt:xthrow.obj
 0001:000033d8       ??0length_error@std@@QEAA@AEBV01@@Z 00000001800043d8 f i libcpmt:xthrow.obj
 0001:000033fc       ??0logic_error@std@@QEAA@AEBV01@@Z 00000001800043fc f i libcpmt:xthrow.obj
 0001:00003420       ??1bad_alloc@std@@UEAA@XZ  0000000180004420 f i libcpmt:xthrow.obj
 0001:00003430       ??1length_error@std@@UEAA@XZ 0000000180004430 f i libcpmt:xthrow.obj
 0001:00003438       ??_Gbad_alloc@std@@UEAAPEAXI@Z 0000000180004438 f i libcpmt:xthrow.obj
 0001:00003438       ??_Ebad_alloc@std@@UEAAPEAXI@Z 0000000180004438 f i libcpmt:xthrow.obj
 0001:00003474       ??_Elength_error@std@@UEAAPEAXI@Z 0000000180004474 f i libcpmt:xthrow.obj
 0001:00003474       ??_Glength_error@std@@UEAAPEAXI@Z 0000000180004474 f i libcpmt:xthrow.obj
 0001:00003474       ??_Glogic_error@std@@UEAAPEAXI@Z 0000000180004474 f i libcpmt:xthrow.obj
 0001:00003474       ??_Elogic_error@std@@UEAAPEAXI@Z 0000000180004474 f i libcpmt:xthrow.obj
 0001:000034a4       ?_Xbad_alloc@std@@YAXXZ    00000001800044a4 f   libcpmt:xthrow.obj
 0001:000034e8       ?_Xlength_error@std@@YAXPEBD@Z 00000001800044e8 f   libcpmt:xthrow.obj
 0001:00003530       __security_check_cookie    0000000180004530 f   LIBCMT:amdsecgs.obj
 0001:00003560       memmove                    0000000180004560 f   LIBCMT:memcpy.obj
 0001:00003560       memcpy                     0000000180004560 f   LIBCMT:memcpy.obj
 0001:00003ac8       _wassert                   0000000180004ac8 f   LIBCMT:wassert.obj
 0001:0000442c       __onexitinit               000000018000542c f   LIBCMT:onexit.obj
 0001:00004470       _onexit                    0000000180005470 f   LIBCMT:onexit.obj
 0001:0000457c       atexit                     000000018000557c f   LIBCMT:onexit.obj
 0001:00004594       _purecall                  0000000180005594 f   LIBCMT:purevirt.obj
 0001:000045c0       ??3@YAXPEAX@Z              00000001800055c0 f   LIBCMT:delete.obj
 0001:000045c8       ??2@YAPEAX_K@Z             00000001800055c8 f   LIBCMT:new.obj
 0001:00004634       ??0_LocaleUpdate@@QEAA@PEAUlocaleinfo_struct@@@Z 0000000180005634 f i LIBCMT:stricmp.obj
 0001:000046dc       __ascii_stricmp            00000001800056dc f   LIBCMT:stricmp.obj
 0001:00004718       _stricmp                   0000000180005718 f   LIBCMT:stricmp.obj
 0001:00004760       _stricmp_l                 0000000180005760 f   LIBCMT:stricmp.obj
 0001:00004814       _CRT_INIT                  0000000180005814 f   LIBCMT:dllcrt0.obj
 0001:00004974       _DllMainCRTStartup         0000000180005974 f   LIBCMT:dllcrt0.obj
 0001:00004af0       strlen                     0000000180005af0 f   LIBCMT:strlen.obj
 0001:00004b98       _CxxThrowException         0000000180005b98 f   LIBCMT:throw.obj
 0001:00004c60       ??_Gtype_info@@UEAAPEAXI@Z 0000000180005c60 f i LIBCMT:typinfo.obj
 0001:00004c60       ??_Etype_info@@UEAAPEAXI@Z 0000000180005c60 f i LIBCMT:typinfo.obj
 0001:00004c9c       _fpmath                    0000000180005c9c f   LIBCMT:fpinit.obj
 0001:00004ca4       _cfltcvt_init              0000000180005ca4 f   LIBCMT:fpinit.obj
 0001:00004d2c       ??0exception@std@@QEAA@AEBQEBD@Z 0000000180005d2c f   LIBCMT:stdexcpt.obj
 0001:00004d5c       ??0exception@std@@QEAA@AEBQEBDH@Z 0000000180005d5c f   LIBCMT:stdexcpt.obj
 0001:00004d78       ??0exception@std@@QEAA@AEBV01@@Z 0000000180005d78 f   LIBCMT:stdexcpt.obj
 0001:00004da4       ??1exception@std@@UEAA@XZ  0000000180005da4 f   LIBCMT:stdexcpt.obj
 0001:00004db4       ??4exception@std@@QEAAAEAV01@AEBV01@@Z 0000000180005db4 f   LIBCMT:stdexcpt.obj
 0001:00004df8       ??_Eexception@std@@UEAAPEAXI@Z 0000000180005df8 f i LIBCMT:stdexcpt.obj
 0001:00004df8       ??_Gexception@std@@UEAAPEAXI@Z 0000000180005df8 f i LIBCMT:stdexcpt.obj
 0001:00004e34       ?_Copy_str@exception@std@@AEAAXPEBD@Z 0000000180005e34 f   LIBCMT:stdexcpt.obj
 0001:00004e90       ?_Tidy@exception@std@@AEAAXXZ 0000000180005e90 f   LIBCMT:stdexcpt.obj
 0001:00004eb8       ?what@exception@std@@UEBAPEBDXZ 0000000180005eb8 f   LIBCMT:stdexcpt.obj
 0001:00004ecc       __raise_securityfailure    0000000180005ecc f   LIBCMT:gs_report.obj
 0001:00004f18       __report_gsfailure         0000000180005f18 f   LIBCMT:gs_report.obj
 0001:00004fec       __isa_available_init       0000000180005fec f   LIBCMT:cpu_disp.obj
 0001:00005190       _call_reportfault          0000000180006190 f   LIBCMT:invarg.obj
 0001:00005284       _initp_misc_invarg         0000000180006284 f   LIBCMT:invarg.obj
 0001:0000528c       _invalid_parameter         000000018000628c f   LIBCMT:invarg.obj
 0001:000052f4       _invalid_parameter_noinfo  00000001800062f4 f   LIBCMT:invarg.obj
 0001:00005314       _invoke_watson             0000000180006314 f   LIBCMT:invarg.obj
 0001:00005350       memcpy_s                   0000000180006350 f   LIBCMT:memcpy_s.obj
 0001:000053d8       wcscat_s                   00000001800063d8 f   LIBCMT:wcscat_s.obj
 0001:00005460       wcscpy_s                   0000000180006460 f   LIBCMT:wcscpy_s.obj
 0001:000054cc       wcslen                     00000001800064cc f   LIBCMT:wcslen.obj
 0001:000054e8       wcsncat_s                  00000001800064e8 f   LIBCMT:wcsncat_s.obj
 0001:000055d0       __crtCorExitProcess        00000001800065d0 f   LIBCMT:crt0dat.obj
 0001:00005614       __crtExitProcess           0000000180006614 f   LIBCMT:crt0dat.obj
 0001:0000562c       __freeCrtMemory            000000018000662c f   LIBCMT:crt0dat.obj
 0001:00005774       _amsg_exit                 0000000180006774 f   LIBCMT:crt0dat.obj
 0001:0000579c       _cexit                     000000018000679c f   LIBCMT:crt0dat.obj
 0001:000057ac       _cinit                     00000001800067ac f   LIBCMT:crt0dat.obj
 0001:00005844       _exit                      0000000180006844 f   LIBCMT:crt0dat.obj
 0001:00005850       _init_pointers             0000000180006850 f   LIBCMT:crt0dat.obj
 0001:000058fc       _initterm_e                00000001800068fc f   LIBCMT:crt0dat.obj
 0001:00005938       _lockexit                  0000000180006938 f   LIBCMT:crt0dat.obj
 0001:00005944       _unlockexit                0000000180006944 f   LIBCMT:crt0dat.obj
 0001:00005ae8       _set_abort_behavior        0000000180006ae8 f   LIBCMT:abort.obj
 0001:00005b04       abort                      0000000180006b04 f   LIBCMT:abort.obj
 0001:00005b5c       _set_error_mode            0000000180006b5c f   LIBCMT:errmode.obj
 0001:00005b9c       _itow_s                    0000000180006b9c f   LIBCMT:xtows.obj
 0001:00005cd4       __initstdio                0000000180006cd4 f   LIBCMT:_file.obj
 0001:00005d6c       __endstdio                 0000000180006d6c f   LIBCMT:_file.obj
 0001:00005d9c       __iob_func                 0000000180006d9c f   LIBCMT:_file.obj
 0001:00005da4       _lock_file                 0000000180006da4 f   LIBCMT:_file.obj
 0001:00005e0c       _lock_file2                0000000180006e0c f   LIBCMT:_file.obj
 0001:00005e40       _unlock_file               0000000180006e40 f   LIBCMT:_file.obj
 0001:00005e90       _unlock_file2              0000000180006e90 f   LIBCMT:_file.obj
 0001:00005eb0       _fflush_nolock             0000000180006eb0 f   LIBCMT:fflush.obj
 0001:00005efc       _flush                     0000000180006efc f   LIBCMT:fflush.obj
 0001:00005f78       _flushall                  0000000180006f78 f   LIBCMT:fflush.obj
 0001:00005f84       fflush                     0000000180006f84 f   LIBCMT:fflush.obj
 0001:000060b0       setvbuf                    00000001800070b0 f   LIBCMT:setvbuf.obj
 0001:000061c8       fwprintf                   00000001800071c8 f   LIBCMT:fwprintf.obj
 0001:0000625c       _vswprintf_c_l             000000018000725c f   LIBCMT:vswprnc.obj
 0001:00006294       _vswprintf_helper          0000000180007294 f   LIBCMT:vswprnc.obj
 0001:000063b0       __get_sigabrt              00000001800073b0 f   LIBCMT:winsig.obj
 0001:000063c0       _initp_misc_winsig         00000001800073c0 f   LIBCMT:winsig.obj
 0001:000063e0       raise                      00000001800073e0 f   LIBCMT:winsig.obj
 0001:00006614       __crtMessageBoxW           0000000180007614 f   LIBCMT:crtmboxw.obj
 0001:00006888       __GSHandlerCheck           0000000180007888 f   LIBCMT:gshandler.obj
 0001:000068a8       __GSHandlerCheckCommon     00000001800078a8 f   LIBCMT:gshandler.obj
 0001:0000690c       _FF_MSGBANNER              000000018000790c f   LIBCMT:crt0msg.obj
 0001:00006950       _GET_RTERRMSG              0000000180007950 f   LIBCMT:crt0msg.obj
 0001:00006980       _NMSG_WRITE                0000000180007980 f   LIBCMT:crt0msg.obj
 0001:00006bf0       _msize                     0000000180007bf0 f   LIBCMT:msize.obj
 0001:00006c2c       _calloc_crt                0000000180007c2c f   LIBCMT:crtheap.obj
 0001:00006cac       _malloc_crt                0000000180007cac f   LIBCMT:crtheap.obj
 0001:00006d28       _realloc_crt               0000000180007d28 f   LIBCMT:crtheap.obj
 0001:00006dac       __C_specific_handler       0000000180007dac f   LIBCMT:chandler.obj
 0001:00006f90       _initp_misc_purevirt       0000000180007f90 f   LIBCMT:inithelp.obj
 0001:00006f98       free                       0000000180007f98 f   LIBCMT:free.obj
 0001:00006fd8       malloc                     0000000180007fd8 f   LIBCMT:malloc.obj
 0001:00007090       _callnewh                  0000000180008090 f   LIBCMT:handler.obj
 0001:000070c4       _initp_heap_handler        00000001800080c4 f   LIBCMT:handler.obj
 0001:000070cc       __addlocaleref             00000001800080cc f   LIBCMT:localref.obj
 0001:00007158       __freetlocinfo             0000000180008158 f   LIBCMT:localref.obj
 0001:000072f0       __removelocaleref          00000001800082f0 f   LIBCMT:localref.obj
 0001:00007394       __updatetlocinfo           0000000180008394 f   LIBCMT:localref.obj
 0001:0000740c       _updatetlocinfoEx_nolock   000000018000840c f   LIBCMT:localref.obj
 0001:00007470       __initmbctable             0000000180008470 f   LIBCMT:mbctype.obj
 0001:0000778c       __updatetmbcinfo           000000018000878c f   LIBCMT:mbctype.obj
 0001:00007848       _setmbcp                   0000000180008848 f   LIBCMT:mbctype.obj
 0001:00007a8c       _setmbcp_nolock            0000000180008a8c f   LIBCMT:mbctype.obj
 0001:00007d3c       _tolower_l                 0000000180008d3c f   LIBCMT:tolower.obj
 0001:00007e90       tolower                    0000000180008e90 f   LIBCMT:tolower.obj
 0001:00007eb0       _freefls                   0000000180008eb0 f   LIBCMT:tidtable.obj
 0001:00007fe4       _freeptd                   0000000180008fe4 f   LIBCMT:tidtable.obj
 0001:00008020       _getptd                    0000000180009020 f   LIBCMT:tidtable.obj
 0001:00008044       _getptd_noexit             0000000180009044 f   LIBCMT:tidtable.obj
 0001:000080c8       _initptd                   00000001800090c8 f   LIBCMT:tidtable.obj
 0001:0000818c       _mtinit                    000000018000918c f   LIBCMT:tidtable.obj
 0001:0000820c       _mtterm                    000000018000920c f   LIBCMT:tidtable.obj
 0001:00008230       __doserrno                 0000000180009230 f   LIBCMT:dosmap.obj
 0001:00008250       _dosmaperr                 0000000180009250 f   LIBCMT:dosmap.obj
 0001:000082a0       _errno                     00000001800092a0 f   LIBCMT:dosmap.obj
 0001:000082c0       _get_errno_from_oserr      00000001800092c0 f   LIBCMT:dosmap.obj
 0001:00008310       _locterm                   0000000180009310 f   LIBCMT:wsetloca.obj
 0001:00008358       _XcptFilter                0000000180009358 f   LIBCMT:winxfltr.obj
 0001:00008524       __CppXcptFilter            0000000180009524 f   LIBCMT:winxfltr.obj
 0001:00008538       _heap_init                 0000000180009538 f   LIBCMT:heapinit.obj
 0001:00008558       _heap_term                 0000000180009558 f   LIBCMT:heapinit.obj
 0001:00008564       _ioinit                    0000000180009564 f   LIBCMT:ioinit.obj
 0001:00008894       _ioterm                    0000000180009894 f   LIBCMT:ioinit.obj
 0001:00008908       _setargv                   0000000180009908 f   LIBCMT:stdargv.obj
 0001:00008bc4       _setenvp                   0000000180009bc4 f   LIBCMT:stdenvp.obj
 0001:00008cf8       __security_init_cookie     0000000180009cf8 f   LIBCMT:gs_support.obj
 0001:00008da4       DllMain                    0000000180009da4 f   LIBCMT:dllmain.obj
 0001:00008dac       __crtGetEnvironmentStringsA 0000000180009dac f   LIBCMT:a_env.obj
 0001:00008ea0       __crtCaptureCurrentContext 0000000180009ea0 f   LIBCMT:winapisupp.obj
 0001:00008f10       __crtCapturePreviousContext 0000000180009f10 f   LIBCMT:winapisupp.obj
 0001:00008f84       __crtFlsAlloc              0000000180009f84 f   LIBCMT:winapisupp.obj
 0001:00008fa0       __crtFlsFree               0000000180009fa0 f   LIBCMT:winapisupp.obj
 0001:00008fbc       __crtFlsGetValue           0000000180009fbc f   LIBCMT:winapisupp.obj
 0001:00008fd8       __crtFlsSetValue           0000000180009fd8 f   LIBCMT:winapisupp.obj
 0001:00008ff4       __crtInitializeCriticalSectionEx 0000000180009ff4 f   LIBCMT:winapisupp.obj
 0001:00009020       __crtIsPackagedApp         000000018000a020 f   LIBCMT:winapisupp.obj
 0001:0000906c       __crtLoadWinApiPointers    000000018000a06c f   LIBCMT:winapisupp.obj
 0001:00009468       __crtSleep                 000000018000a468 f   LIBCMT:winapisupp.obj
 0001:00009470       __crtTerminateProcess      000000018000a470 f   LIBCMT:winapisupp.obj
 0001:00009490       __crtUnhandledException    000000018000a490 f   LIBCMT:winapisupp.obj
 0001:000094b0       _RTC_Initialize            000000018000a4b0 f   LIBCMT:initsect.obj
 0001:000094e8       _RTC_Terminate             000000018000a4e8 f   LIBCMT:initsect.obj
 0001:00009520       __DestructExceptionObject  000000018000a520 f   LIBCMT:frame.obj
 0001:00009590       ?terminate@@YAXXZ          000000018000a590 f   LIBCMT:hooks.obj
 0001:000095b0       _initp_eh_hooks            000000018000a5b0 f   LIBCMT:hooks.obj
 0001:000095e0       strcmp                     000000018000a5e0 f   LIBCMT:strcmp.obj
 0001:00009648       ?_Type_info_dtor@type_info@@CAXPEAV1@@Z 000000018000a648 f   LIBCMT:typname.obj
 0001:000096b4       _cfltcvt                   000000018000a6b4 f   LIBCMT:cvt.obj
 0001:000096d8       _cfltcvt_l                 000000018000a6d8 f   LIBCMT:cvt.obj
 0001:00009758       _cftoa_l                   000000018000a758 f   LIBCMT:cvt.obj
 0001:00009d04       _cftoe_l                   000000018000ad04 f   LIBCMT:cvt.obj
 0001:00009f60       _cftof_l                   000000018000af60 f   LIBCMT:cvt.obj
 0001:0000a034       _cftog_l                   000000018000b034 f   LIBCMT:cvt.obj
 0001:0000a168       _cropzeros                 000000018000b168 f   LIBCMT:cvt.obj
 0001:0000a170       _cropzeros_l               000000018000b170 f   LIBCMT:cvt.obj
 0001:0000a208       _fassign                   000000018000b208 f   LIBCMT:cvt.obj
 0001:0000a210       _fassign_l                 000000018000b210 f   LIBCMT:cvt.obj
 0001:0000a250       _forcdecpt                 000000018000b250 f   LIBCMT:cvt.obj
 0001:0000a258       _forcdecpt_l               000000018000b258 f   LIBCMT:cvt.obj
 0001:0000a2d8       _positive                  000000018000b2d8 f   LIBCMT:cvt.obj
 0001:0000a2ec       _initp_misc_cfltcvt_tab    000000018000b2ec f   LIBCMT:cmiscdat.obj
 0001:0000a328       strcpy_s                   000000018000b328 f   LIBCMT:strcpy_s.obj
 0001:0000a38c       __crt_debugger_hook        000000018000b38c f   LIBCMT:dbghook.obj
 0001:0000a3b0       memset                     000000018000b3b0 f   LIBCMT:memset.obj
 0001:0000a5dc       _lock                      000000018000b5dc f   LIBCMT:mlock.obj
 0001:0000a620       _mtdeletelocks             000000018000b620 f   LIBCMT:mlock.obj
 0001:0000a6a8       _mtinitlocknum             000000018000b6a8 f   LIBCMT:mlock.obj
 0001:0000a768       _mtinitlocks               000000018000b768 f   LIBCMT:mlock.obj
 0001:0000a7cc       _unlock                    000000018000b7cc f   LIBCMT:mlock.obj
 0001:0000a7f0       _FindPESection             000000018000b7f0 f   LIBCMT:pesect.obj
 0001:0000a840       _IsNonwritableInCurrentImage 000000018000b840 f   LIBCMT:pesect.obj
 0001:0000a890       _ValidateImageBase         000000018000b890 f   LIBCMT:pesect.obj
 0001:0000a8c0       _initp_misc_rand_s         000000018000b8c0 f   LIBCMT:rand_s.obj
 0001:0000a8c8       _ftbuf                     000000018000b8c8 f   LIBCMT:_sftbuf.obj
 0001:0000a900       _stbuf                     000000018000b900 f   LIBCMT:_sftbuf.obj
 0001:0000a9d0       _fcloseall                 000000018000b9d0 f   LIBCMT:closeall.obj
 0001:0000aa78       _fileno                    000000018000ba78 f   LIBCMT:fileno.obj
 0001:0000aaa0       _commit                    000000018000baa0 f   LIBCMT:commit.obj
 0001:0000ab78       _write                     000000018000bb78 f   LIBCMT:write.obj
 0001:0000ac5c       _write_nolock              000000018000bc5c f   LIBCMT:write.obj
 0001:0000b450       _freebuf                   000000018000c450 f   LIBCMT:_freebuf.obj
 0001:0000b488       _woutput_l                 000000018000c488 f   LIBCMT:woutput.obj
 0001:0000c048       _flsbuf                    000000018000d048 f   LIBCMT:_flsbuf.obj
 0001:0000c1d4       wcsncpy_s                  000000018000d1d4 f   LIBCMT:wcsncpy_s.obj
 0001:0000c2a0       realloc                    000000018000d2a0 f   LIBCMT:realloc.obj
 0001:0000c374       _calloc_impl               000000018000d374 f   LIBCMT:calloc_impl.obj
 0001:0000c420       _local_unwind              000000018000d420 f   LIBCMT:jmpuwind.obj
 0001:0000c450       _NLG_Notify                000000018000d450 f   LIBCMT:jmpuwind.obj
 0001:0000c470       __NLG_Dispatch2            000000018000d470 f   LIBCMT:jmpuwind.obj
 0001:0000c480       __NLG_Return2              000000018000d480 f   LIBCMT:jmpuwind.obj
 0001:0000c484       GetTableIndexFromLocaleName 000000018000d484 f   LIBCMT:winapinls.obj
 0001:0000c510       __crtDownlevelLocaleNameToLCID 000000018000d510 f   LIBCMT:winapinls.obj
 0001:0000c544       __crtLCMapStringEx         000000018000d544 f   LIBCMT:winapinls.obj
 0001:0000c5d4       __wcsnicmp_ascii           000000018000d5d4 f   LIBCMT:winapinls.obj
 0001:0000c640       _get_fpsr                  000000018000d640 f   LIBCMT:fpsr.obj
 0001:0000c650       _set_fpsr                  000000018000d650 f   LIBCMT:fpsr.obj
 0001:0000c65a       _fclrf                     000000018000d65a f   LIBCMT:fpsr.obj
 0001:0000c66e       _frnd                      000000018000d66e f   LIBCMT:fpsr.obj
 0001:0000c690       __free_lconv_mon           000000018000d690 f   LIBCMT:initmon.obj
 0001:0000c79c       __free_lconv_num           000000018000d79c f   LIBCMT:initnum.obj
 0001:0000c808       __free_lc_time             000000018000d808 f   LIBCMT:inittime.obj
 0001:0000cef0       __crtLCMapStringA          000000018000def0 f   LIBCMT:a_map.obj
 0001:0000d100       __crtGetStringTypeA        000000018000e100 f   LIBCMT:a_str.obj
 0001:0000d17c       _isctype_l                 000000018000e17c f   LIBCMT:isctype.obj
 0001:0000d258       _isleadbyte_l              000000018000e258 f i LIBCMT:_wctype.obj
 0001:0000d29c       isleadbyte                 000000018000e29c f i LIBCMT:_wctype.obj
 0001:0000d300       memcmp                     000000018000e300 f   LIBCMT:memcmp.obj
 0001:0000d444       _ismbblead                 000000018000e444 f   LIBCMT:ismbbyte.obj
 0001:0000d470       _CallSettingFrame          000000018000e470 f   LIBCMT:handlers.obj
 0001:0000d4b0       _GetNextInstrOffset        000000018000e4b0 f   LIBCMT:handlers.obj
 0001:0000d4b8       isdigit                    000000018000e4b8 f i LIBCMT:_ctype.obj
 0001:0000d534       strrchr                    000000018000e534 f   LIBCMT:strrchr.obj
 0001:0000d678       _fptostr                   000000018000e678 f   LIBCMT:_fptostr.obj
 0001:0000d744       __crt_atoflt_l             000000018000e744 f   LIBCMT:atodbl.obj
 0001:0000d814       _atodbl_l                  000000018000e814 f   LIBCMT:atodbl.obj
 0001:0000d8dc       _atoflt_l                  000000018000e8dc f   LIBCMT:atodbl.obj
 0001:0000d8e4       __dtold                    000000018000e8e4 f   LIBCMT:cfout.obj
 0001:0000d9b4       _fltout2                   000000018000e9b4 f   LIBCMT:cfout.obj
 0001:0000da6c       _fptrap                    000000018000ea6c f   LIBCMT:crt0fp.obj
 0001:0000da78       _isatty                    000000018000ea78 f   LIBCMT:isatty.obj
 0001:0000dad8       _fclose_nolock             000000018000ead8 f   LIBCMT:fclose.obj
 0001:0000db54       fclose                     000000018000eb54 f   LIBCMT:fclose.obj
 0001:0000dbbc       __lock_fhandle             000000018000ebbc f   LIBCMT:osfinfo.obj
 0001:0000dc54       _free_osfhnd               000000018000ec54 f   LIBCMT:osfinfo.obj
 0001:0000dd00       _get_osfhandle             000000018000ed00 f   LIBCMT:osfinfo.obj
 0001:0000dd74       _unlock_fhandle            000000018000ed74 f   LIBCMT:osfinfo.obj
 0001:0000dda0       _lseeki64                  000000018000eda0 f   LIBCMT:lseeki64.obj
 0001:0000de88       _lseeki64_nolock           000000018000ee88 f   LIBCMT:lseeki64.obj
 0001:0000df1c       _mbtowc_l                  000000018000ef1c f   LIBCMT:mbtowc.obj
 0001:0000e070       mbtowc                     000000018000f070 f   LIBCMT:mbtowc.obj
 0001:0000e078       _putwch_nolock             000000018000f078 f   LIBCMT:putwch.obj
 0001:0000e0f0       __chkstk                   000000018000f0f0 f   LIBCMT:chkstk.obj
 0001:0000e0f0       _alloca_probe              000000018000f0f0 f   LIBCMT:chkstk.obj
 0001:0000e140       _get_printf_count_output   000000018000f140 f   LIBCMT:printf.obj
 0001:0000e158       _fputwc_nolock             000000018000f158 f   LIBCMT:fputwc.obj
 0001:0000e34c       _getbuf                    000000018000f34c f   LIBCMT:_getbuf.obj
 0001:0000e3a0       _ld12tod                   000000018000f3a0 f   LIBCMT:intrncvt.obj
 0001:0000e958       _ld12tof                   000000018000f958 f   LIBCMT:intrncvt.obj
 0001:0000ef10       __strgtold12_l             000000018000ff10 f   LIBCMT:strgtold.obj
 0001:0000f774       $I10_OUTPUT                0000000180010774 f   LIBCMT:x10fout.obj
 0001:0001024c       _close                     000000018001124c f   LIBCMT:close.obj
 0001:00010310       _close_nolock              0000000180011310 f   LIBCMT:close.obj
 0001:000103cc       __termconout               00000001800113cc f   LIBCMT:initcon.obj
 0001:000103ec       __initconout               00000001800113ec f   LIBCMT:initcon.obj
 0001:00010428       _wctomb_s_l                0000000180011428 f   LIBCMT:wctomb.obj
 0001:000105b4       wctomb_s                   00000001800115b4 f   LIBCMT:wctomb.obj
 0001:000105c8       _flswbuf                   00000001800115c8 f   LIBCMT:_flswbuf.obj
 0001:00010758       __mtold12                  0000000180011758 f   LIBCMT:mantold.obj
 0001:00010980       RtlUnwindEx                0000000180011980 f   kernel32:KERNEL32.dll
 0001:00010986       IsProcessorFeaturePresent  0000000180011986 f   kernel32:KERNEL32.dll
 0001:0001098c       __delayLoadHelper2         000000018001198c f   DelayImp:delayhlp.obj
 0001:00010ed0       ??__Fcbmap@?1??New@?$Factory@VFunctionTemplate@v8@@@imp@Nan@@SA?AV?$Local@VFunctionTemplate@v8@@@v8@@P6AXAEBV?$FunctionCallbackInfo@VValue@v8@@@3@@ZV?$Local@VValue@v8@@@5@V?$Local@VSignature@v8@@@5@@Z@YAXXZ 0000000180011ed0 f i bufferutil.obj
 0002:00000000       __imp_GetModuleHandleA     0000000180012000     kernel32:KERNEL32.dll
 0002:00000008       __imp_GetStdHandle         0000000180012008     kernel32:KERNEL32.dll
 0002:00000010       __imp_GetFileType          0000000180012010     kernel32:KERNEL32.dll
 0002:00000018       __imp_GetModuleFileNameW   0000000180012018     kernel32:KERNEL32.dll
 0002:00000020       __imp_GetModuleHandleExW   0000000180012020     kernel32:KERNEL32.dll
 0002:00000028       __imp_WriteConsoleW        0000000180012028     kernel32:KERNEL32.dll
 0002:00000030       __imp_EncodePointer        0000000180012030     kernel32:KERNEL32.dll
 0002:00000038       __imp_DecodePointer        0000000180012038     kernel32:KERNEL32.dll
 0002:00000040       __imp_GetCommandLineA      0000000180012040     kernel32:KERNEL32.dll
 0002:00000048       __imp_GetCurrentThreadId   0000000180012048     kernel32:KERNEL32.dll
 0002:00000050       __imp_RtlPcToFileHeader    0000000180012050     kernel32:KERNEL32.dll
 0002:00000058       __imp_RaiseException       0000000180012058     kernel32:KERNEL32.dll
 0002:00000060       __imp_RtlLookupFunctionEntry 0000000180012060     kernel32:KERNEL32.dll
 0002:00000068       __imp_RtlUnwindEx          0000000180012068     kernel32:KERNEL32.dll
 0002:00000070       __imp_IsDebuggerPresent    0000000180012070     kernel32:KERNEL32.dll
 0002:00000078       __imp_IsProcessorFeaturePresent 0000000180012078     kernel32:KERNEL32.dll
 0002:00000080       __imp_GetLastError         0000000180012080     kernel32:KERNEL32.dll
 0002:00000088       __imp_ExitProcess          0000000180012088     kernel32:KERNEL32.dll
 0002:00000090       __imp_GetProcAddress       0000000180012090     kernel32:KERNEL32.dll
 0002:00000098       __imp_MultiByteToWideChar  0000000180012098     kernel32:KERNEL32.dll
 0002:000000a0       __imp_WideCharToMultiByte  00000001800120a0     kernel32:KERNEL32.dll
 0002:000000a8       __imp_EnterCriticalSection 00000001800120a8     kernel32:KERNEL32.dll
 0002:000000b0       __imp_LeaveCriticalSection 00000001800120b0     kernel32:KERNEL32.dll
 0002:000000b8       __imp_OutputDebugStringW   00000001800120b8     kernel32:KERNEL32.dll
 0002:000000c0       __imp_LoadLibraryExW       00000001800120c0     kernel32:KERNEL32.dll
 0002:000000c8       __imp_WriteFile            00000001800120c8     kernel32:KERNEL32.dll
 0002:000000d0       __imp_HeapSize             00000001800120d0     kernel32:KERNEL32.dll
 0002:000000d8       __imp_HeapFree             00000001800120d8     kernel32:KERNEL32.dll
 0002:000000e0       __imp_HeapAlloc            00000001800120e0     kernel32:KERNEL32.dll
 0002:000000e8       __imp_IsValidCodePage      00000001800120e8     kernel32:KERNEL32.dll
 0002:000000f0       __imp_GetACP               00000001800120f0     kernel32:KERNEL32.dll
 0002:000000f8       __imp_GetOEMCP             00000001800120f8     kernel32:KERNEL32.dll
 0002:00000100       __imp_GetCPInfo            0000000180012100     kernel32:KERNEL32.dll
 0002:00000108       __imp_SetLastError         0000000180012108     kernel32:KERNEL32.dll
 0002:00000110       __imp_GetProcessHeap       0000000180012110     kernel32:KERNEL32.dll
 0002:00000118       __imp_DeleteCriticalSection 0000000180012118     kernel32:KERNEL32.dll
 0002:00000120       __imp_GetStartupInfoW      0000000180012120     kernel32:KERNEL32.dll
 0002:00000128       __imp_GetModuleFileNameA   0000000180012128     kernel32:KERNEL32.dll
 0002:00000130       __imp_QueryPerformanceCounter 0000000180012130     kernel32:KERNEL32.dll
 0002:00000138       __imp_GetCurrentProcessId  0000000180012138     kernel32:KERNEL32.dll
 0002:00000140       __imp_GetSystemTimeAsFileTime 0000000180012140     kernel32:KERNEL32.dll
 0002:00000148       __imp_GetEnvironmentStringsW 0000000180012148     kernel32:KERNEL32.dll
 0002:00000150       __imp_FreeEnvironmentStringsW 0000000180012150     kernel32:KERNEL32.dll
 0002:00000158       __imp_RtlCaptureContext    0000000180012158     kernel32:KERNEL32.dll
 0002:00000160       __imp_RtlVirtualUnwind     0000000180012160     kernel32:KERNEL32.dll
 0002:00000168       __imp_UnhandledExceptionFilter 0000000180012168     kernel32:KERNEL32.dll
 0002:00000170       __imp_SetUnhandledExceptionFilter 0000000180012170     kernel32:KERNEL32.dll
 0002:00000178       __imp_InitializeCriticalSectionAndSpinCount 0000000180012178     kernel32:KERNEL32.dll
 0002:00000180       __imp_Sleep                0000000180012180     kernel32:KERNEL32.dll
 0002:00000188       __imp_GetCurrentProcess    0000000180012188     kernel32:KERNEL32.dll
 0002:00000190       __imp_TerminateProcess     0000000180012190     kernel32:KERNEL32.dll
 0002:00000198       __imp_TlsAlloc             0000000180012198     kernel32:KERNEL32.dll
 0002:000001a0       __imp_TlsGetValue          00000001800121a0     kernel32:KERNEL32.dll
 0002:000001a8       __imp_TlsSetValue          00000001800121a8     kernel32:KERNEL32.dll
 0002:000001b0       __imp_TlsFree              00000001800121b0     kernel32:KERNEL32.dll
 0002:000001b8       __imp_GetModuleHandleW     00000001800121b8     kernel32:KERNEL32.dll
 0002:000001c0       __imp_FreeLibrary          00000001800121c0     kernel32:KERNEL32.dll
 0002:000001c8       __imp_FlushFileBuffers     00000001800121c8     kernel32:KERNEL32.dll
 0002:000001d0       __imp_GetConsoleCP         00000001800121d0     kernel32:KERNEL32.dll
 0002:000001d8       __imp_GetConsoleMode       00000001800121d8     kernel32:KERNEL32.dll
 0002:000001e0       __imp_HeapReAlloc          00000001800121e0     kernel32:KERNEL32.dll
 0002:000001e8       __imp_LCMapStringW         00000001800121e8     kernel32:KERNEL32.dll
 0002:000001f0       __imp_GetStringTypeW       00000001800121f0     kernel32:KERNEL32.dll
 0002:000001f8       __imp_SetStdHandle         00000001800121f8     kernel32:KERNEL32.dll
 0002:00000200       __imp_SetFilePointerEx     0000000180012200     kernel32:KERNEL32.dll
 0002:00000208       __imp_CloseHandle          0000000180012208     kernel32:KERNEL32.dll
 0002:00000210       __imp_CreateFileW          0000000180012210     kernel32:KERNEL32.dll
 0002:00000218       __imp_LoadLibraryExA       0000000180012218     kernel32:KERNEL32.dll
 0002:00000220       \177KERNEL32_NULL_THUNK_DATA 0000000180012220     kernel32:KERNEL32.dll
 0002:00000228       __xc_a                     0000000180012228     LIBCMT:crt0init.obj
 0002:00000250       _register_bufferutil_      0000000180012250     bufferutil.obj
 0002:00000258       __xc_z                     0000000180012258     LIBCMT:crt0init.obj
 0002:00000260       __xi_a                     0000000180012260     LIBCMT:crt0init.obj
 0002:00000288       __xi_z                     0000000180012288     LIBCMT:crt0init.obj
 0002:00000290       __xp_a                     0000000180012290     LIBCMT:crt0init.obj
 0002:000002b0       __xp_z                     00000001800122b0     LIBCMT:crt0init.obj
 0002:000002b8       __xt_a                     00000001800122b8     LIBCMT:crt0init.obj
 0002:000002c0       __xt_z                     00000001800122c0     LIBCMT:crt0init.obj
 0002:00000310       __sz_node_exe              0000000180012310     node:node.exe
 0002:00000cc0       ??_C@_0BC@CIJDGCDI@permission?5denied?$AA@ 0000000180012cc0     libcpmt:syserror.obj
 0002:00000cd8       ??_C@_0M@MIDIAGJP@file?5exists?$AA@ 0000000180012cd8     libcpmt:syserror.obj
 0002:00000ce8       ??_C@_0P@FDINDDOK@no?5such?5device?$AA@ 0000000180012ce8     libcpmt:syserror.obj
 0002:00000cf8       ??_C@_0BC@EJHOMAAK@filename?5too?5long?$AA@ 0000000180012cf8     libcpmt:syserror.obj
 0002:00000d10       ??_C@_0BI@NGCEHDD@device?5or?5resource?5busy?$AA@ 0000000180012d10     libcpmt:syserror.obj
 0002:00000d28       ??_C@_08GLNPIFBN@io?5error?$AA@ 0000000180012d28     libcpmt:syserror.obj
 0002:00000d38       ??_C@_0BE@JIDOCPHM@directory?5not?5empty?$AA@ 0000000180012d38     libcpmt:syserror.obj
 0002:00000d50       ??_C@_0BB@FCMFBGOM@invalid?5argument?$AA@ 0000000180012d50     libcpmt:syserror.obj
 0002:00000d68       ??_C@_0BD@IJDJKDEA@no?5space?5on?5device?$AA@ 0000000180012d68     libcpmt:syserror.obj
 0002:00000d80       ??_C@_0BK@NDOCBPGE@no?5such?5file?5or?5directory?$AA@ 0000000180012d80     libcpmt:syserror.obj
 0002:00000da0       ??_C@_0BH@KEFGLDAF@function?5not?5supported?$AA@ 0000000180012da0     libcpmt:syserror.obj
 0002:00000db8       ??_C@_0BC@NJECKMKE@no?5lock?5available?$AA@ 0000000180012db8     libcpmt:syserror.obj
 0002:00000dd0       ??_C@_0BC@ENOOLCNF@not?5enough?5memory?$AA@ 0000000180012dd0     libcpmt:syserror.obj
 0002:00000de8       ??_C@_0BP@LKNGHENJ@resource?5unavailable?5try?5again?$AA@ 0000000180012de8     libcpmt:syserror.obj
 0002:00000e08       ??_C@_0BC@PPHBOELF@cross?5device?5link?$AA@ 0000000180012e08     libcpmt:syserror.obj
 0002:00000e20       ??_C@_0BD@MOLBPMEA@operation?5canceled?$AA@ 0000000180012e20     libcpmt:syserror.obj
 0002:00000e38       ??_C@_0BE@GHAFMPAH@too?5many?5files?5open?$AA@ 0000000180012e38     libcpmt:syserror.obj
 0002:00000e50       ??_C@_0BC@FNODOBAE@permission_denied?$AA@ 0000000180012e50     libcpmt:syserror.obj
 0002:00000e68       ??_C@_0P@LNDJPBFK@address_in_use?$AA@ 0000000180012e68     libcpmt:syserror.obj
 0002:00000e78       ??_C@_0BG@IPMGOJF@address_not_available?$AA@ 0000000180012e78     libcpmt:syserror.obj
 0002:00000e90       ??_C@_0BN@LCBDHODA@address_family_not_supported?$AA@ 0000000180012e90     libcpmt:syserror.obj
 0002:00000eb0       ??_C@_0BP@FOJJHMCC@connection_already_in_progress?$AA@ 0000000180012eb0     libcpmt:syserror.obj
 0002:00000ed0       ??_C@_0BE@DLHHIBGN@bad_file_descriptor?$AA@ 0000000180012ed0     libcpmt:syserror.obj
 0002:00000ee8       ??_C@_0BD@OJMJDIGI@connection_aborted?$AA@ 0000000180012ee8     libcpmt:syserror.obj
 0002:00000f00       ??_C@_0BD@NGKCIFEP@connection_refused?$AA@ 0000000180012f00     libcpmt:syserror.obj
 0002:00000f18       ??_C@_0BB@JOANDNCK@connection_reset?$AA@ 0000000180012f18     libcpmt:syserror.obj
 0002:00000f30       ??_C@_0BN@JLJNLKLK@destination_address_required?$AA@ 0000000180012f30     libcpmt:syserror.obj
 0002:00000f50       ??_C@_0M@IJGMGFGP@bad_address?$AA@ 0000000180012f50     libcpmt:syserror.obj
 0002:00000f60       ??_C@_0BB@KKNHPPIN@host_unreachable?$AA@ 0000000180012f60     libcpmt:syserror.obj
 0002:00000f78       ??_C@_0BG@DJGBJIIK@operation_in_progress?$AA@ 0000000180012f78     libcpmt:syserror.obj
 0002:00000f90       ??_C@_0M@EGEKIIMP@interrupted?$AA@ 0000000180012f90     libcpmt:syserror.obj
 0002:00000fa0       ??_C@_0BB@FFIHMIPJ@invalid_argument?$AA@ 0000000180012fa0     libcpmt:syserror.obj
 0002:00000fb8       ??_C@_0BC@FIFLCHLO@already_connected?$AA@ 0000000180012fb8     libcpmt:syserror.obj
 0002:00000fd0       ??_C@_0BE@GJJJJDDA@too_many_files_open?$AA@ 0000000180012fd0     libcpmt:syserror.obj
 0002:00000fe8       ??_C@_0N@HPMLKHPL@message_size?$AA@ 0000000180012fe8     libcpmt:syserror.obj
 0002:00000ff8       ??_C@_0BC@LEEIKBAL@filename_too_long?$AA@ 0000000180012ff8     libcpmt:syserror.obj
 0002:00001010       ??_C@_0N@FCPALPJK@network_down?$AA@ 0000000180013010     libcpmt:syserror.obj
 0002:00001020       ??_C@_0O@EHNDLHIG@network_reset?$AA@ 0000000180013020     libcpmt:syserror.obj
 0002:00001030       ??_C@_0BE@JFNJIDNF@network_unreachable?$AA@ 0000000180013030     libcpmt:syserror.obj
 0002:00001048       ??_C@_0BA@FDIJKJCL@no_buffer_space?$AA@ 0000000180013048     libcpmt:syserror.obj
 0002:00001058       ??_C@_0BD@JHIHCGKP@no_protocol_option?$AA@ 0000000180013058     libcpmt:syserror.obj
 0002:00001070       ??_C@_0O@GBCLHHD@not_connected?$AA@ 0000000180013070     libcpmt:syserror.obj
 0002:00001080       ??_C@_0N@IMHKKLEM@not_a_socket?$AA@ 0000000180013080     libcpmt:syserror.obj
 0002:00001090       ??_C@_0BI@ICEIDKLJ@operation_not_supported?$AA@ 0000000180013090     libcpmt:syserror.obj
 0002:000010a8       ??_C@_0BH@KAPBAIJF@protocol_not_supported?$AA@ 00000001800130a8     libcpmt:syserror.obj
 0002:000010c0       ??_C@_0BE@GAOJJFPC@wrong_protocol_type?$AA@ 00000001800130c0     libcpmt:syserror.obj
 0002:000010d8       ??_C@_09NCHNLHPG@timed_out?$AA@ 00000001800130d8     libcpmt:syserror.obj
 0002:000010e8       ??_C@_0BG@GDGHKFDH@operation_would_block?$AA@ 00000001800130e8     libcpmt:syserror.obj
 0002:00001100       ??_C@_0BN@LKKBCCDB@address?5family?5not?5supported?$AA@ 0000000180013100     libcpmt:syserror.obj
 0002:00001120       ??_C@_0P@LDMLAFHI@address?5in?5use?$AA@ 0000000180013120     libcpmt:syserror.obj
 0002:00001130       ??_C@_0BG@DHPCNBJB@address?5not?5available?$AA@ 0000000180013130     libcpmt:syserror.obj
 0002:00001148       ??_C@_0BC@DFIBIBIL@already?5connected?$AA@ 0000000180013148     libcpmt:syserror.obj
 0002:00001160       ??_C@_0BH@CAKOHOMI@argument?5list?5too?5long?$AA@ 0000000180013160     libcpmt:syserror.obj
 0002:00001178       ??_C@_0BH@CGIMPKIM@argument?5out?5of?5domain?$AA@ 0000000180013178     libcpmt:syserror.obj
 0002:00001190       ??_C@_0M@KGHGGJGL@bad?5address?$AA@ 0000000180013190     libcpmt:syserror.obj
 0002:000011a0       ??_C@_0BE@MPJPGCEO@bad?5file?5descriptor?$AA@ 00000001800131a0     libcpmt:syserror.obj
 0002:000011b8       ??_C@_0M@PMMIEFCP@bad?5message?$AA@ 00000001800131b8     libcpmt:syserror.obj
 0002:000011c8       ??_C@_0M@KPHOFDBE@broken?5pipe?$AA@ 00000001800131c8     libcpmt:syserror.obj
 0002:000011d8       ??_C@_0BD@MGNDDEGM@connection?5aborted?$AA@ 00000001800131d8     libcpmt:syserror.obj
 0002:000011f0       ??_C@_0BP@KAIHPOGN@connection?5already?5in?5progress?$AA@ 00000001800131f0     libcpmt:syserror.obj
 0002:00001210       ??_C@_0BD@PJLIIJEL@connection?5refused?$AA@ 0000000180013210     libcpmt:syserror.obj
 0002:00001228       ??_C@_0BB@IECNJNOI@connection?5reset?$AA@ 0000000180013228     libcpmt:syserror.obj
 0002:00001240       ??_C@_0BN@KDMIFEIP@destination?5address?5required?$AA@ 0000000180013240     libcpmt:syserror.obj
 0002:00001260       ??_C@_0BI@BNCLIGPB@executable?5format?5error?$AA@ 0000000180013260     libcpmt:syserror.obj
 0002:00001278       ??_C@_0P@DNAJLBJK@file?5too?5large?$AA@ 0000000180013278     libcpmt:syserror.obj
 0002:00001288       ??_C@_0BB@DHFDFGDM@host?5unreachable?$AA@ 0000000180013288     libcpmt:syserror.obj
 0002:000012a0       ??_C@_0BD@JPHBMONG@identifier?5removed?$AA@ 00000001800132a0     libcpmt:syserror.obj
 0002:000012b8       ??_C@_0BG@CDNPAGJK@illegal?5byte?5sequence?$AA@ 00000001800132b8     libcpmt:syserror.obj
 0002:000012d0       ??_C@_0CD@BNPLBMNA@inappropriate?5io?5control?5operati@ 00000001800132d0     libcpmt:syserror.obj
 0002:000012f8       ??_C@_0N@OHAFKDEK@invalid?5seek?$AA@ 00000001800132f8     libcpmt:syserror.obj
 0002:00001308       ??_C@_0P@FLLDBIDK@is?5a?5directory?$AA@ 0000000180013308     libcpmt:syserror.obj
 0002:00001318       ??_C@_0N@IFLPBIOP@message?5size?$AA@ 0000000180013318     libcpmt:syserror.obj
 0002:00001328       ??_C@_0N@KIIEAAIO@network?5down?$AA@ 0000000180013328     libcpmt:syserror.obj
 0002:00001338       ??_C@_0O@FNPDBHEE@network?5reset?$AA@ 0000000180013338     libcpmt:syserror.obj
 0002:00001348       ??_C@_0BE@IFNCKGE@network?5unreachable?$AA@ 0000000180013348     libcpmt:syserror.obj
 0002:00001360       ??_C@_0BA@PFFCAOFK@no?5buffer?5space?$AA@ 0000000180013360     libcpmt:syserror.obj
 0002:00001370       ??_C@_0BB@IEPBLJHK@no?5child?5process?$AA@ 0000000180013370     libcpmt:syserror.obj
 0002:00001388       ??_C@_07PLECNNKG@no?5link?$AA@ 0000000180013388     libcpmt:syserror.obj
 0002:00001390       ??_C@_0BF@PBGGPKKE@no?5message?5available?$AA@ 0000000180013390     libcpmt:syserror.obj
 0002:000013a8       ??_C@_0L@EDOLMPAK@no?5message?$AA@ 00000001800133a8     libcpmt:syserror.obj
 0002:000013b8       ??_C@_0BD@EAMBFIDF@no?5protocol?5option?$AA@ 00000001800133b8     libcpmt:syserror.obj
 0002:000013d0       ??_C@_0BE@MKFDAFMP@no?5stream?5resources?$AA@ 00000001800133d0     libcpmt:syserror.obj
 0002:000013e8       ??_C@_0BK@IMCPHCBI@no?5such?5device?5or?5address?$AA@ 00000001800133e8     libcpmt:syserror.obj
 0002:00001408       ??_C@_0BA@ENLPPKBN@no?5such?5process?$AA@ 0000000180013408     libcpmt:syserror.obj
 0002:00001418       ??_C@_0BA@DOCPFFJG@not?5a?5directory?$AA@ 0000000180013418     libcpmt:syserror.obj
 0002:00001428       ??_C@_0N@POEIPGGF@not?5a?5socket?$AA@ 0000000180013428     libcpmt:syserror.obj
 0002:00001438       ??_C@_0N@LGAPMMPI@not?5a?5stream?$AA@ 0000000180013438     libcpmt:syserror.obj
 0002:00001448       ??_C@_0O@GLMIBBEG@not?5connected?$AA@ 0000000180013448     libcpmt:syserror.obj
 0002:00001458       ??_C@_0O@NHEDABJP@not?5supported?$AA@ 0000000180013458     libcpmt:syserror.obj
 0002:00001468       ??_C@_0BG@KDKHOPCO@operation?5in?5progress?$AA@ 0000000180013468     libcpmt:syserror.obj
 0002:00001480       ??_C@_0BI@OHIEJAAB@operation?5not?5permitted?$AA@ 0000000180013480     libcpmt:syserror.obj
 0002:00001498       ??_C@_0BI@LNEGIFLN@operation?5not?5supported?$AA@ 0000000180013498     libcpmt:syserror.obj
 0002:000014b0       ??_C@_0BG@OEMDKMEE@operation?5would?5block?$AA@ 00000001800134b0     libcpmt:syserror.obj
 0002:000014c8       ??_C@_0L@BLPOFLNJ@owner?5dead?$AA@ 00000001800134c8     libcpmt:syserror.obj
 0002:000014d8       ??_C@_0P@FNPOCJBE@protocol?5error?$AA@ 00000001800134d8     libcpmt:syserror.obj
 0002:000014e8       ??_C@_0BH@JPPPLHJB@protocol?5not?5supported?$AA@ 00000001800134e8     libcpmt:syserror.obj
 0002:00001500       ??_C@_0BG@EICBIHDP@read?5only?5file?5system?$AA@ 0000000180013500     libcpmt:syserror.obj
 0002:00001518       ??_C@_0BO@BJBOMOEJ@resource?5deadlock?5would?5occur?$AA@ 0000000180013518     libcpmt:syserror.obj
 0002:00001538       ??_C@_0BE@GOIPJJHG@result?5out?5of?5range?$AA@ 0000000180013538     libcpmt:syserror.obj
 0002:00001550       ??_C@_0BG@MPLKFPAE@state?5not?5recoverable?$AA@ 0000000180013550     libcpmt:syserror.obj
 0002:00001568       ??_C@_0P@DIIFGFCG@stream?5timeout?$AA@ 0000000180013568     libcpmt:syserror.obj
 0002:00001578       ??_C@_0P@IPFDMIFL@text?5file?5busy?$AA@ 0000000180013578     libcpmt:syserror.obj
 0002:00001588       ??_C@_09KJPPMAOI@timed?5out?$AA@ 0000000180013588     libcpmt:syserror.obj
 0002:00001598       ??_C@_0BO@HACHBEKI@too?5many?5files?5open?5in?5system?$AA@ 0000000180013598     libcpmt:syserror.obj
 0002:000015b8       ??_C@_0P@HCOMKFCC@too?5many?5links?$AA@ 00000001800135b8     libcpmt:syserror.obj
 0002:000015c8       ??_C@_0BO@EFGOJEF@too?5many?5symbolic?5link?5levels?$AA@ 00000001800135c8     libcpmt:syserror.obj
 0002:000015e8       ??_C@_0BA@KGKGOOJA@value?5too?5large?$AA@ 00000001800135e8     libcpmt:syserror.obj
 0002:000015f8       ??_C@_0BE@MIEJDDNH@wrong?5protocol?5type?$AA@ 00000001800135f8     libcpmt:syserror.obj
 0002:00001618       ??_7bad_alloc@std@@6B@     0000000180013618     libcpmt:xthrow.obj
 0002:00001628       ??_C@_0P@GHFPNOJB@bad?5allocation?$AA@ 0000000180013628     libcpmt:xthrow.obj
 0002:00001640       ??_7logic_error@std@@6B@   0000000180013640     libcpmt:xthrow.obj
 0002:00001658       ??_7length_error@std@@6B@  0000000180013658     libcpmt:xthrow.obj
 0002:00001668       ??_C@_17LGKOMLJ@?$AA?4?$AA?4?$AA?4?$AA?$AA@ 0000000180013668     LIBCMT:wassert.obj
 0002:00001670       ??_C@_13LBAGMAIH@?$AA?6?$AA?$AA@ 0000000180013670     LIBCMT:wassert.obj
 0002:00001674       ??_C@_15IABLJNFO@?$AA?6?$AA?6?$AA?$AA@ 0000000180013674     LIBCMT:wassert.obj
 0002:00001680       ??_C@_1CE@OJBNHDMO@?$AAA?$AAs?$AAs?$AAe?$AAr?$AAt?$AAi?$AAo?$AAn?$AA?5?$AAf?$AAa?$AAi?$AAl?$AAe?$AAd?$AA?$CB?$AA?$AA@ 0000000180013680     LIBCMT:wassert.obj
 0002:000016a8       ??_C@_1BE@PHKBBGE@?$AAP?$AAr?$AAo?$AAg?$AAr?$AAa?$AAm?$AA?3?$AA?5?$AA?$AA@ 00000001800136a8     LIBCMT:wassert.obj
 0002:000016c0       ??_C@_1CO@EAEJAADC@?$AA?$DM?$AAp?$AAr?$AAo?$AAg?$AAr?$AAa?$AAm?$AA?5?$AAn?$AAa?$AAm?$AAe?$AA?5?$AAu?$AAn?$AAk?$AAn?$AAo?$AAw?$AAn?$AA?$DO?$AA?$AA@ 00000001800136c0     LIBCMT:wassert.obj
 0002:000016f0       ??_C@_1O@HEMHKNDC@?$AAF?$AAi?$AAl?$AAe?$AA?3?$AA?5?$AA?$AA@ 00000001800136f0     LIBCMT:wassert.obj
 0002:00001700       ??_C@_1O@KCAFKHJE@?$AAL?$AAi?$AAn?$AAe?$AA?3?$AA?5?$AA?$AA@ 0000000180013700     LIBCMT:wassert.obj
 0002:00001710       ??_C@_1BK@PEDCIPMA@?$AAE?$AAx?$AAp?$AAr?$AAe?$AAs?$AAs?$AAi?$AAo?$AAn?$AA?3?$AA?5?$AA?$AA@ 0000000180013710     LIBCMT:wassert.obj
 0002:00001730       ??_C@_1OA@EGMLFBHJ@?$AAF?$AAo?$AAr?$AA?5?$AAi?$AAn?$AAf?$AAo?$AAr?$AAm?$AAa?$AAt?$AAi?$AAo?$AAn?$AA?5?$AAo?$AAn?$AA?5?$AAh?$AAo?$AAw?$AA?5?$AAy?$AAo?$AAu?$AAr?$AA?5?$AAp?$AAr?$AAo?$AAg@ 0000000180013730     LIBCMT:wassert.obj
 0002:00001810       ??_C@_1HK@POCJMFGK@?$AA?$CI?$AAP?$AAr?$AAe?$AAs?$AAs?$AA?5?$AAR?$AAe?$AAt?$AAr?$AAy?$AA?5?$AAt?$AAo?$AA?5?$AAd?$AAe?$AAb?$AAu?$AAg?$AA?5?$AAt?$AAh?$AAe?$AA?5?$AAa?$AAp?$AAp?$AAl?$AAi?$AAc@ 0000000180013810     LIBCMT:wassert.obj
 0002:00001890       ??_C@_1EK@MBDPDCGA@?$AAM?$AAi?$AAc?$AAr?$AAo?$AAs?$AAo?$AAf?$AAt?$AA?5?$AAV?$AAi?$AAs?$AAu?$AAa?$AAl?$AA?5?$AAC?$AA?$CL?$AA?$CL?$AA?5?$AAR?$AAu?$AAn?$AAt?$AAi?$AAm?$AAe?$AA?5?$AAL?$AAi?$AAb@ 0000000180013890     LIBCMT:wassert.obj
 0002:000018dc       ??_C@_06MEIMCGCF@_hypot?$AA@ 00000001800138dc     LIBCMT:hypot.obj
 0002:000018e8       _pDefaultRawDllMain        00000001800138e8     LIBCMT:dllcrt0.obj
 0002:000018e8       _pRawDllMain               00000001800138e8     LIBCMT:dllcrt0.obj
 0002:00001938       ??_7type_info@@6B@         0000000180013938     LIBCMT:typinfo.obj
 0002:00001940       _FPinit                    0000000180013940     LIBCMT:fpinit.obj
 0002:00001950       ??_7exception@std@@6B@     0000000180013950     LIBCMT:stdexcpt.obj
 0002:00001960       ??_C@_0BC@EOODALEL@Unknown?5exception?$AA@ 0000000180013960     LIBCMT:stdexcpt.obj
 0002:00001988       ??_C@_1BI@BGOHAHKC@?$AAm?$AAs?$AAc?$AAo?$AAr?$AAe?$AAe?$AA?4?$AAd?$AAl?$AAl?$AA?$AA@ 0000000180013988     LIBCMT:crt0dat.obj
 0002:000019a0       ??_C@_0P@MIGLKIOC@CorExitProcess?$AA@ 00000001800139a0     LIBCMT:crt0dat.obj
 0002:000019b0       ??_C@_1BG@GOEBHBDC@?$AAU?$AAS?$AAE?$AAR?$AA3?$AA2?$AA?4?$AAD?$AAL?$AAL?$AA?$AA@ 00000001800139b0     LIBCMT:crtmboxw.obj
 0002:000019c8       ??_C@_0M@DLDCCGNP@MessageBoxW?$AA@ 00000001800139c8     LIBCMT:crtmboxw.obj
 0002:000019d8       ??_C@_0BA@HNOPNCHB@GetActiveWindow?$AA@ 00000001800139d8     LIBCMT:crtmboxw.obj
 0002:000019e8       ??_C@_0BD@HHGDFDBJ@GetLastActivePopup?$AA@ 00000001800139e8     LIBCMT:crtmboxw.obj
 0002:00001a00       ??_C@_0BK@DEKFELLI@GetUserObjectInformationW?$AA@ 0000000180013a00     LIBCMT:crtmboxw.obj
 0002:00001a20       ??_C@_0BI@DFKBFLJE@GetProcessWindowStation?$AA@ 0000000180013a20     LIBCMT:crtmboxw.obj
 0002:00001bb0       ??_C@_1FK@PGACCAFB@?$AAR?$AA6?$AA0?$AA0?$AA2?$AA?$AN?$AA?6?$AA?9?$AA?5?$AAf?$AAl?$AAo?$AAa?$AAt?$AAi?$AAn?$AAg?$AA?5?$AAp?$AAo?$AAi?$AAn?$AAt?$AA?5?$AAs?$AAu?$AAp?$AAp?$AAo?$AAr?$AAt?$AA?5@ 0000000180013bb0     LIBCMT:crt0msg.obj
 0002:00001c10       ??_C@_1FE@LLNEDJMD@?$AAR?$AA6?$AA0?$AA0?$AA8?$AA?$AN?$AA?6?$AA?9?$AA?5?$AAn?$AAo?$AAt?$AA?5?$AAe?$AAn?$AAo?$AAu?$AAg?$AAh?$AA?5?$AAs?$AAp?$AAa?$AAc?$AAe?$AA?5?$AAf?$AAo?$AAr?$AA?5?$AAa?$AAr@ 0000000180013c10     LIBCMT:crt0msg.obj
 0002:00001c70       ??_C@_1FI@HONFMGBI@?$AAR?$AA6?$AA0?$AA0?$AA9?$AA?$AN?$AA?6?$AA?9?$AA?5?$AAn?$AAo?$AAt?$AA?5?$AAe?$AAn?$AAo?$AAu?$AAg?$AAh?$AA?5?$AAs?$AAp?$AAa?$AAc?$AAe?$AA?5?$AAf?$AAo?$AAr?$AA?5?$AAe?$AAn@ 0000000180013c70     LIBCMT:crt0msg.obj
 0002:00001cd0       ??_C@_1EG@BEHAGFJD@?$AAR?$AA6?$AA0?$AA1?$AA0?$AA?$AN?$AA?6?$AA?9?$AA?5?$AAa?$AAb?$AAo?$AAr?$AAt?$AA?$CI?$AA?$CJ?$AA?5?$AAh?$AAa?$AAs?$AA?5?$AAb?$AAe?$AAe?$AAn?$AA?5?$AAc?$AAa?$AAl?$AAl?$AAe?$AAd@ 0000000180013cd0     LIBCMT:crt0msg.obj
 0002:00001d20       ??_C@_1FI@LOGNIKDM@?$AAR?$AA6?$AA0?$AA1?$AA6?$AA?$AN?$AA?6?$AA?9?$AA?5?$AAn?$AAo?$AAt?$AA?5?$AAe?$AAn?$AAo?$AAu?$AAg?$AAh?$AA?5?$AAs?$AAp?$AAa?$AAc?$AAe?$AA?5?$AAf?$AAo?$AAr?$AA?5?$AAt?$AAh@ 0000000180013d20     LIBCMT:crt0msg.obj
 0002:00001d80       ??_C@_1FK@BEOGODMC@?$AAR?$AA6?$AA0?$AA1?$AA7?$AA?$AN?$AA?6?$AA?9?$AA?5?$AAu?$AAn?$AAe?$AAx?$AAp?$AAe?$AAc?$AAt?$AAe?$AAd?$AA?5?$AAm?$AAu?$AAl?$AAt?$AAi?$AAt?$AAh?$AAr?$AAe?$AAa?$AAd?$AA?5@ 0000000180013d80     LIBCMT:crt0msg.obj
 0002:00001de0       ??_C@_1EC@JIBHAOPH@?$AAR?$AA6?$AA0?$AA1?$AA8?$AA?$AN?$AA?6?$AA?9?$AA?5?$AAu?$AAn?$AAe?$AAx?$AAp?$AAe?$AAc?$AAt?$AAe?$AAd?$AA?5?$AAh?$AAe?$AAa?$AAp?$AA?5?$AAe?$AAr?$AAr?$AAo?$AAr?$AA?$AN?$AA?6@ 0000000180013de0     LIBCMT:crt0msg.obj
 0002:00001e30       ??_C@_1FC@ECHBIFBC@?$AAR?$AA6?$AA0?$AA1?$AA9?$AA?$AN?$AA?6?$AA?9?$AA?5?$AAu?$AAn?$AAa?$AAb?$AAl?$AAe?$AA?5?$AAt?$AAo?$AA?5?$AAo?$AAp?$AAe?$AAn?$AA?5?$AAc?$AAo?$AAn?$AAs?$AAo?$AAl?$AAe?$AA?5@ 0000000180013e30     LIBCMT:crt0msg.obj
 0002:00001e90       ??_C@_1GK@FHCKBEFA@?$AAR?$AA6?$AA0?$AA2?$AA4?$AA?$AN?$AA?6?$AA?9?$AA?5?$AAn?$AAo?$AAt?$AA?5?$AAe?$AAn?$AAo?$AAu?$AAg?$AAh?$AA?5?$AAs?$AAp?$AAa?$AAc?$AAe?$AA?5?$AAf?$AAo?$AAr?$AA?5?$AA_?$AAo@ 0000000180013e90     LIBCMT:crt0msg.obj
 0002:00001f00       ??_C@_1EM@MAADIHMB@?$AAR?$AA6?$AA0?$AA2?$AA5?$AA?$AN?$AA?6?$AA?9?$AA?5?$AAp?$AAu?$AAr?$AAe?$AA?5?$AAv?$AAi?$AAr?$AAt?$AAu?$AAa?$AAl?$AA?5?$AAf?$AAu?$AAn?$AAc?$AAt?$AAi?$AAo?$AAn?$AA?5?$AAc@ 0000000180013f00     LIBCMT:crt0msg.obj
 0002:00001f50       ??_C@_1GK@MCAAGJMO@?$AAR?$AA6?$AA0?$AA2?$AA6?$AA?$AN?$AA?6?$AA?9?$AA?5?$AAn?$AAo?$AAt?$AA?5?$AAe?$AAn?$AAo?$AAu?$AAg?$AAh?$AA?5?$AAs?$AAp?$AAa?$AAc?$AAe?$AA?5?$AAf?$AAo?$AAr?$AA?5?$AAs?$AAt@ 0000000180013f50     LIBCMT:crt0msg.obj
 0002:00001fc0       ??_C@_1GK@MFGOKLAG@?$AAR?$AA6?$AA0?$AA2?$AA7?$AA?$AN?$AA?6?$AA?9?$AA?5?$AAn?$AAo?$AAt?$AA?5?$AAe?$AAn?$AAo?$AAu?$AAg?$AAh?$AA?5?$AAs?$AAp?$AAa?$AAc?$AAe?$AA?5?$AAf?$AAo?$AAr?$AA?5?$AAl?$AAo@ 0000000180013fc0     LIBCMT:crt0msg.obj
 0002:00002030       ??_C@_1EK@HHFLMAOL@?$AAR?$AA6?$AA0?$AA2?$AA8?$AA?$AN?$AA?6?$AA?9?$AA?5?$AAu?$AAn?$AAa?$AAb?$AAl?$AAe?$AA?5?$AAt?$AAo?$AA?5?$AAi?$AAn?$AAi?$AAt?$AAi?$AAa?$AAl?$AAi?$AAz?$AAe?$AA?5?$AAh?$AAe@ 0000000180014030     LIBCMT:crt0msg.obj
 0002:00002080       ??_C@_1DO@BMFCDCD@?$AAR?$AA6?$AA0?$AA3?$AA0?$AA?$AN?$AA?6?$AA?9?$AA?5?$AAC?$AAR?$AAT?$AA?5?$AAn?$AAo?$AAt?$AA?5?$AAi?$AAn?$AAi?$AAt?$AAi?$AAa?$AAl?$AAi?$AAz?$AAe?$AAd?$AA?$AN?$AA?6?$AA?$AA@ 0000000180014080     LIBCMT:crt0msg.obj
 0002:000020c0       ??_C@_1MG@ENCOOIDF@?$AAR?$AA6?$AA0?$AA3?$AA1?$AA?$AN?$AA?6?$AA?9?$AA?5?$AAA?$AAt?$AAt?$AAe?$AAm?$AAp?$AAt?$AA?5?$AAt?$AAo?$AA?5?$AAi?$AAn?$AAi?$AAt?$AAi?$AAa?$AAl?$AAi?$AAz?$AAe?$AA?5?$AAt@ 00000001800140c0     LIBCMT:crt0msg.obj
 0002:00002190       ??_C@_1GG@GOPILAJP@?$AAR?$AA6?$AA0?$AA3?$AA2?$AA?$AN?$AA?6?$AA?9?$AA?5?$AAn?$AAo?$AAt?$AA?5?$AAe?$AAn?$AAo?$AAu?$AAg?$AAh?$AA?5?$AAs?$AAp?$AAa?$AAc?$AAe?$AA?5?$AAf?$AAo?$AAr?$AA?5?$AAl?$AAo@ 0000000180014190     LIBCMT:crt0msg.obj
 0002:00002200       ??_C@_1BOO@KGEDBGAJ@?$AAR?$AA6?$AA0?$AA3?$AA3?$AA?$AN?$AA?6?$AA?9?$AA?5?$AAA?$AAt?$AAt?$AAe?$AAm?$AAp?$AAt?$AA?5?$AAt?$AAo?$AA?5?$AAu?$AAs?$AAe?$AA?5?$AAM?$AAS?$AAI?$AAL?$AA?5?$AAc?$AAo?$AAd@ 0000000180014200     LIBCMT:crt0msg.obj
 0002:000023f0       ??_C@_1GG@MKFPEKFO@?$AAR?$AA6?$AA0?$AA3?$AA4?$AA?$AN?$AA?6?$AA?9?$AA?5?$AAi?$AAn?$AAc?$AAo?$AAn?$AAs?$AAi?$AAs?$AAt?$AAe?$AAn?$AAt?$AA?5?$AAo?$AAn?$AAe?$AAx?$AAi?$AAt?$AA?5?$AAb?$AAe?$AAg@ 00000001800143f0     LIBCMT:crt0msg.obj
 0002:00002458       ??_C@_1BO@BFCDCGC@?$AAD?$AAO?$AAM?$AAA?$AAI?$AAN?$AA?5?$AAe?$AAr?$AAr?$AAo?$AAr?$AA?$AN?$AA?6?$AA?$AA@ 0000000180014458     LIBCMT:crt0msg.obj
 0002:00002478       ??_C@_1BK@KMOMNAAI@?$AAS?$AAI?$AAN?$AAG?$AA?5?$AAe?$AAr?$AAr?$AAo?$AAr?$AA?$AN?$AA?6?$AA?$AA@ 0000000180014478     LIBCMT:crt0msg.obj
 0002:00002498       ??_C@_1BM@JBBEPPHI@?$AAT?$AAL?$AAO?$AAS?$AAS?$AA?5?$AAe?$AAr?$AAr?$AAo?$AAr?$AA?$AN?$AA?6?$AA?$AA@ 0000000180014498     LIBCMT:crt0msg.obj
 0002:000024b4       ??_C@_15JNBOKNOG@?$AA?$AN?$AA?6?$AA?$AA@ 00000001800144b4     LIBCMT:crt0msg.obj
 0002:000024c0       ??_C@_1BO@BKOMIGKJ@?$AAr?$AAu?$AAn?$AAt?$AAi?$AAm?$AAe?$AA?5?$AAe?$AAr?$AAr?$AAo?$AAr?$AA?5?$AA?$AA@ 00000001800144c0     LIBCMT:crt0msg.obj
 0002:000024e0       ??_C@_1DE@JNGNBFGO@?$AAR?$AAu?$AAn?$AAt?$AAi?$AAm?$AAe?$AA?5?$AAE?$AAr?$AAr?$AAo?$AAr?$AA?$CB?$AA?6?$AA?6?$AAP?$AAr?$AAo?$AAg?$AAr?$AAa?$AAm?$AA?3?$AA?5?$AA?$AA@ 00000001800144e0     LIBCMT:crt0msg.obj
 0002:00002538       ??_C@_1M@HPNHIDJI@?$AAj?$AAa?$AA?9?$AAJ?$AAP?$AA?$AA@ 0000000180014538     LIBCMT:mbctype.obj
 0002:00002548       ??_C@_1M@BIBDDEMK@?$AAz?$AAh?$AA?9?$AAC?$AAN?$AA?$AA@ 0000000180014548     LIBCMT:mbctype.obj
 0002:00002558       ??_C@_1M@JLOOOEGK@?$AAk?$AAo?$AA?9?$AAK?$AAR?$AA?$AA@ 0000000180014558     LIBCMT:mbctype.obj
 0002:00002568       ??_C@_1M@CLNBBOPM@?$AAz?$AAh?$AA?9?$AAT?$AAW?$AA?$AA@ 0000000180014568     LIBCMT:mbctype.obj
 0002:00002574       ??_C@_03KOEHGMDN@Sun?$AA@  0000000180014574     LIBCMT:nlsdata.obj
 0002:00002578       ??_C@_03PDAGKDH@Mon?$AA@   0000000180014578     LIBCMT:nlsdata.obj
 0002:0000257c       ??_C@_03NAGEINEP@Tue?$AA@  000000018001457c     LIBCMT:nlsdata.obj
 0002:00002580       ??_C@_03MHOMLAJA@Wed?$AA@  0000000180014580     LIBCMT:nlsdata.obj
 0002:00002584       ??_C@_03IOFIKPDN@Thu?$AA@  0000000180014584     LIBCMT:nlsdata.obj
 0002:00002588       ??_C@_03IDIOELNC@Fri?$AA@  0000000180014588     LIBCMT:nlsdata.obj
 0002:0000258c       ??_C@_03FEFJNEK@Sat?$AA@   000000018001458c     LIBCMT:nlsdata.obj
 0002:00002590       ??_C@_06OOPIFAJ@Sunday?$AA@ 0000000180014590     LIBCMT:nlsdata.obj
 0002:00002598       ??_C@_06JLEDEDGH@Monday?$AA@ 0000000180014598     LIBCMT:nlsdata.obj
 0002:000025a0       ??_C@_07BAAGCFCM@Tuesday?$AA@ 00000001800145a0     LIBCMT:nlsdata.obj
 0002:000025a8       ??_C@_09DLIGFAKA@Wednesday?$AA@ 00000001800145a8     LIBCMT:nlsdata.obj
 0002:000025b8       ??_C@_08HACCIKIA@Thursday?$AA@ 00000001800145b8     LIBCMT:nlsdata.obj
 0002:000025c4       ??_C@_06JECMNKMI@Friday?$AA@ 00000001800145c4     LIBCMT:nlsdata.obj
 0002:000025d0       ??_C@_08INBOOONO@Saturday?$AA@ 00000001800145d0     LIBCMT:nlsdata.obj
 0002:000025dc       ??_C@_03JIHJHPIE@Jan?$AA@  00000001800145dc     LIBCMT:nlsdata.obj
 0002:000025e0       ??_C@_03HJBDCHOM@Feb?$AA@  00000001800145e0     LIBCMT:nlsdata.obj
 0002:000025e4       ??_C@_03ODNJBKGA@Mar?$AA@  00000001800145e4     LIBCMT:nlsdata.obj
 0002:000025e8       ??_C@_03LEOLGMJP@Apr?$AA@  00000001800145e8     LIBCMT:nlsdata.obj
 0002:000025ec       ??_C@_03CNMDKL@May?$AA@    00000001800145ec     LIBCMT:nlsdata.obj
 0002:000025f0       ??_C@_03IDFGHECI@Jun?$AA@  00000001800145f0     LIBCMT:nlsdata.obj
 0002:000025f4       ??_C@_03LBGABGKK@Jul?$AA@  00000001800145f4     LIBCMT:nlsdata.obj
 0002:000025f8       ??_C@_03IFJFEIGA@Aug?$AA@  00000001800145f8     LIBCMT:nlsdata.obj
 0002:000025fc       ??_C@_03GGCAPAJC@Sep?$AA@  00000001800145fc     LIBCMT:nlsdata.obj
 0002:00002600       ??_C@_03BMAOKBAD@Oct?$AA@  0000000180014600     LIBCMT:nlsdata.obj
 0002:00002604       ??_C@_03JPJOFNIA@Nov?$AA@  0000000180014604     LIBCMT:nlsdata.obj
 0002:00002608       ??_C@_03MKABNOCG@Dec?$AA@  0000000180014608     LIBCMT:nlsdata.obj
 0002:00002610       ??_C@_07CGJPFGJA@January?$AA@ 0000000180014610     LIBCMT:nlsdata.obj
 0002:00002618       ??_C@_08GNJGEPFN@February?$AA@ 0000000180014618     LIBCMT:nlsdata.obj
 0002:00002624       ??_C@_05HPCKOFNC@March?$AA@ 0000000180014624     LIBCMT:nlsdata.obj
 0002:0000262c       ??_C@_05DMJDNLEJ@April?$AA@ 000000018001462c     LIBCMT:nlsdata.obj
 0002:00002634       ??_C@_04CNLMGBGM@June?$AA@ 0000000180014634     LIBCMT:nlsdata.obj
 0002:0000263c       ??_C@_04MIEPOIFP@July?$AA@ 000000018001463c     LIBCMT:nlsdata.obj
 0002:00002644       ??_C@_06LBBHFDDG@August?$AA@ 0000000180014644     LIBCMT:nlsdata.obj
 0002:00002650       ??_C@_09BHHEALKD@September?$AA@ 0000000180014650     LIBCMT:nlsdata.obj
 0002:00002660       ??_C@_07JJNFCEND@October?$AA@ 0000000180014660     LIBCMT:nlsdata.obj
 0002:00002668       ??_C@_08HCHEGEOA@November?$AA@ 0000000180014668     LIBCMT:nlsdata.obj
 0002:00002678       ??_C@_08EDHMEBNP@December?$AA@ 0000000180014678     LIBCMT:nlsdata.obj
 0002:00002684       ??_C@_02DEDBPAFC@AM?$AA@   0000000180014684     LIBCMT:nlsdata.obj
 0002:00002688       ??_C@_02CJNFDJBF@PM?$AA@   0000000180014688     LIBCMT:nlsdata.obj
 0002:00002690       ??_C@_08BPBNCDIB@MM?1dd?1yy?$AA@ 0000000180014690     LIBCMT:nlsdata.obj
 0002:000026a0       ??_C@_0BE@CKGJFCPC@dddd?0?5MMMM?5dd?0?5yyyy?$AA@ 00000001800146a0     LIBCMT:nlsdata.obj
 0002:000026b8       ??_C@_08JCCMCCIL@HH?3mm?3ss?$AA@ 00000001800146b8     LIBCMT:nlsdata.obj
 0002:000026c8       ??_C@_17MBGCMIPB@?$AAS?$AAu?$AAn?$AA?$AA@ 00000001800146c8     LIBCMT:nlsdata.obj
 0002:000026d0       ??_C@_17KBOMKBF@?$AAM?$AAo?$AAn?$AA?$AA@ 00000001800146d0     LIBCMT:nlsdata.obj
 0002:000026d8       ??_C@_17BMKGEGOJ@?$AAT?$AAu?$AAe?$AA?$AA@ 00000001800146d8     LIBCMT:nlsdata.obj
 0002:000026e0       ??_C@_17CJEDCEPE@?$AAW?$AAe?$AAd?$AA?$AA@ 00000001800146e0     LIBCMT:nlsdata.obj
 0002:000026e8       ??_C@_17PDPHAADD@?$AAT?$AAh?$AAu?$AA?$AA@ 00000001800146e8     LIBCMT:nlsdata.obj
 0002:000026f0       ??_C@_17HFOLPPLP@?$AAF?$AAr?$AAi?$AA?$AA@ 00000001800146f0     LIBCMT:nlsdata.obj
 0002:000026f8       ??_C@_17GGIBDPIH@?$AAS?$AAa?$AAt?$AA?$AA@ 00000001800146f8     LIBCMT:nlsdata.obj
 0002:00002700       ??_C@_1O@IHNHDHPB@?$AAS?$AAu?$AAn?$AAd?$AAa?$AAy?$AA?$AA@ 0000000180014700     LIBCMT:nlsdata.obj
 0002:00002710       ??_C@_1O@MMNBFLIA@?$AAM?$AAo?$AAn?$AAd?$AAa?$AAy?$AA?$AA@ 0000000180014710     LIBCMT:nlsdata.obj
 0002:00002720       ??_C@_1BA@ENFBFFEK@?$AAT?$AAu?$AAe?$AAs?$AAd?$AAa?$AAy?$AA?$AA@ 0000000180014720     LIBCMT:nlsdata.obj
 0002:00002730       ??_C@_1BE@EBOGMDOH@?$AAW?$AAe?$AAd?$AAn?$AAe?$AAs?$AAd?$AAa?$AAy?$AA?$AA@ 0000000180014730     LIBCMT:nlsdata.obj
 0002:00002748       ??_C@_1BC@HHMNLIHE@?$AAT?$AAh?$AAu?$AAr?$AAs?$AAd?$AAa?$AAy?$AA?$AA@ 0000000180014748     LIBCMT:nlsdata.obj
 0002:00002760       ??_C@_1O@PDICJHAG@?$AAF?$AAr?$AAi?$AAd?$AAa?$AAy?$AA?$AA@ 0000000180014760     LIBCMT:nlsdata.obj
 0002:00002770       ??_C@_1BC@ENMNNPAJ@?$AAS?$AAa?$AAt?$AAu?$AAr?$AAd?$AAa?$AAy?$AA?$AA@ 0000000180014770     LIBCMT:nlsdata.obj
 0002:00002788       ??_C@_17DKNBKCHM@?$AAJ?$AAa?$AAn?$AA?$AA@ 0000000180014788     LIBCMT:nlsdata.obj
 0002:00002790       ??_C@_17LMDJEKJN@?$AAF?$AAe?$AAb?$AA?$AA@ 0000000180014790     LIBCMT:nlsdata.obj
 0002:00002798       ??_C@_17CKNLEDEC@?$AAM?$AAa?$AAr?$AA?$AA@ 0000000180014798     LIBCMT:nlsdata.obj
 0002:000027a0       ??_C@_17LFPOIHDD@?$AAA?$AAp?$AAr?$AA?$AA@ 00000001800147a0     LIBCMT:nlsdata.obj
 0002:000027a8       ??_C@_17PNNKMEED@?$AAM?$AAa?$AAy?$AA?$AA@ 00000001800147a8     LIBCMT:nlsdata.obj
 0002:000027b0       ??_C@_17KCJGOCPB@?$AAJ?$AAu?$AAn?$AA?$AA@ 00000001800147b0     LIBCMT:nlsdata.obj
 0002:000027b8       ??_C@_17IJPCKHK@?$AAJ?$AAu?$AAl?$AA?$AA@ 00000001800147b8     LIBCMT:nlsdata.obj
 0002:000027c0       ??_C@_17ICPELBCN@?$AAA?$AAu?$AAg?$AA?$AA@ 00000001800147c0     LIBCMT:nlsdata.obj
 0002:000027c8       ??_C@_17HCHCOKMG@?$AAS?$AAe?$AAp?$AA?$AA@ 00000001800147c8     LIBCMT:nlsdata.obj
 0002:000027d0       ??_C@_17FNLKOI@?$AAO?$AAc?$AAt?$AA?$AA@ 00000001800147d0     LIBCMT:nlsdata.obj
 0002:000027d8       ??_C@_17BBDMLCIG@?$AAN?$AAo?$AAv?$AA?$AA@ 00000001800147d8     LIBCMT:nlsdata.obj
 0002:000027e0       ??_C@_17EGKACKIF@?$AAD?$AAe?$AAc?$AA?$AA@ 00000001800147e0     LIBCMT:nlsdata.obj
 0002:000027e8       ??_C@_1BA@EFMEIEBA@?$AAJ?$AAa?$AAn?$AAu?$AAa?$AAr?$AAy?$AA?$AA@ 00000001800147e8     LIBCMT:nlsdata.obj
 0002:000027f8       ??_C@_1BC@JGDDFFAM@?$AAF?$AAe?$AAb?$AAr?$AAu?$AAa?$AAr?$AAy?$AA?$AA@ 00000001800147f8     LIBCMT:nlsdata.obj
 0002:00002810       ??_C@_1M@IKEENEDF@?$AAM?$AAa?$AAr?$AAc?$AAh?$AA?$AA@ 0000000180014810     LIBCMT:nlsdata.obj
 0002:00002820       ??_C@_1M@GJNLMHFD@?$AAA?$AAp?$AAr?$AAi?$AAl?$AA?$AA@ 0000000180014820     LIBCMT:nlsdata.obj
 0002:00002830       ??_C@_19EPFLPGAP@?$AAJ?$AAu?$AAn?$AAe?$AA?$AA@ 0000000180014830     LIBCMT:nlsdata.obj
 0002:00002840       ??_C@_19BIFMLPCD@?$AAJ?$AAu?$AAl?$AAy?$AA?$AA@ 0000000180014840     LIBCMT:nlsdata.obj
 0002:00002850       ??_C@_1O@PAHLKOAC@?$AAA?$AAu?$AAg?$AAu?$AAs?$AAt?$AA?$AA@ 0000000180014850     LIBCMT:nlsdata.obj
 0002:00002860       ??_C@_1BE@DKAAMBJL@?$AAS?$AAe?$AAp?$AAt?$AAe?$AAm?$AAb?$AAe?$AAr?$AA?$AA@ 0000000180014860     LIBCMT:nlsdata.obj
 0002:00002878       ??_C@_1BA@EPANDLNG@?$AAO?$AAc?$AAt?$AAo?$AAb?$AAe?$AAr?$AA?$AA@ 0000000180014878     LIBCMT:nlsdata.obj
 0002:00002888       ??_C@_1BC@BGLIFPF@?$AAN?$AAo?$AAv?$AAe?$AAm?$AAb?$AAe?$AAr?$AA?$AA@ 0000000180014888     LIBCMT:nlsdata.obj
 0002:000028a0       ??_C@_1BC@FEMKIFH@?$AAD?$AAe?$AAc?$AAe?$AAm?$AAb?$AAe?$AAr?$AA?$AA@ 00000001800148a0     LIBCMT:nlsdata.obj
 0002:000028b4       ??_C@_15ODEHAHHF@?$AAA?$AAM?$AA?$AA@ 00000001800148b4     LIBCMT:nlsdata.obj
 0002:000028bc       ??_C@_15CLMNNGEL@?$AAP?$AAM?$AA?$AA@ 00000001800148bc     LIBCMT:nlsdata.obj
 0002:000028c8       ??_C@_1BC@IEBCMHCM@?$AAM?$AAM?$AA?1?$AAd?$AAd?$AA?1?$AAy?$AAy?$AA?$AA@ 00000001800148c8     LIBCMT:nlsdata.obj
 0002:000028e0       ??_C@_1CI@KNAKOEBC@?$AAd?$AAd?$AAd?$AAd?$AA?0?$AA?5?$AAM?$AAM?$AAM?$AAM?$AA?5?$AAd?$AAd?$AA?0?$AA?5?$AAy?$AAy?$AAy?$AAy?$AA?$AA@ 00000001800148e0     LIBCMT:nlsdata.obj
 0002:00002908       ??_C@_1BC@GDGBMEMK@?$AAH?$AAH?$AA?3?$AAm?$AAm?$AA?3?$AAs?$AAs?$AA?$AA@ 0000000180014908     LIBCMT:nlsdata.obj
 0002:00002920       ??_C@_1M@BMHNFIME@?$AAe?$AAn?$AA?9?$AAU?$AAS?$AA?$AA@ 0000000180014920     LIBCMT:nlsdata.obj
 0002:000029b0       _XcptActTab                00000001800149b0     LIBCMT:winxfltr.obj
 0002:00002a70       _XcptActTabCount           0000000180014a70     LIBCMT:winxfltr.obj
 0002:00002a74       _XcptActTabSize            0000000180014a74     LIBCMT:winxfltr.obj
 0002:00002a78       _First_FPE_Indx            0000000180014a78     LIBCMT:winxfltr.obj
 0002:00002a7c       _Num_FPE                   0000000180014a7c     LIBCMT:winxfltr.obj
 0002:00002a80       ??_C@_1BK@MGMFAEKH@?$AAk?$AAe?$AAr?$AAn?$AAe?$AAl?$AA3?$AA2?$AA?4?$AAd?$AAl?$AAl?$AA?$AA@ 0000000180014a80     LIBCMT:winapisupp.obj
 0002:00002aa0       ??_C@_08KNHFBNJ@FlsAlloc?$AA@ 0000000180014aa0     LIBCMT:winapisupp.obj
 0002:00002ab0       ??_C@_07PEJMOBNF@FlsFree?$AA@ 0000000180014ab0     LIBCMT:winapisupp.obj
 0002:00002ab8       ??_C@_0M@GDNOONDI@FlsGetValue?$AA@ 0000000180014ab8     LIBCMT:winapisupp.obj
 0002:00002ac8       ??_C@_0M@JCPCPOEF@FlsSetValue?$AA@ 0000000180014ac8     LIBCMT:winapisupp.obj
 0002:00002ad8       ??_C@_0BM@HCFOFFN@InitializeCriticalSectionEx?$AA@ 0000000180014ad8     LIBCMT:winapisupp.obj
 0002:00002af8       ??_C@_0P@DLHPPCNH@CreateEventExW?$AA@ 0000000180014af8     LIBCMT:winapisupp.obj
 0002:00002b08       ??_C@_0BD@KIEEOEEH@CreateSemaphoreExW?$AA@ 0000000180014b08     LIBCMT:winapisupp.obj
 0002:00002b20       ??_C@_0BI@BKLFFAPO@SetThreadStackGuarantee?$AA@ 0000000180014b20     LIBCMT:winapisupp.obj
 0002:00002b38       ??_C@_0BG@OGFAJCKC@CreateThreadpoolTimer?$AA@ 0000000180014b38     LIBCMT:winapisupp.obj
 0002:00002b50       ??_C@_0BD@LPLEMMDI@SetThreadpoolTimer?$AA@ 0000000180014b50     LIBCMT:winapisupp.obj
 0002:00002b68       ??_C@_0CA@FMNJENH@WaitForThreadpoolTimerCallbacks?$AA@ 0000000180014b68     LIBCMT:winapisupp.obj
 0002:00002b88       ??_C@_0BF@DCFCCNOC@CloseThreadpoolTimer?$AA@ 0000000180014b88     LIBCMT:winapisupp.obj
 0002:00002ba0       ??_C@_0BF@FLABGKKM@CreateThreadpoolWait?$AA@ 0000000180014ba0     LIBCMT:winapisupp.obj
 0002:00002bb8       ??_C@_0BC@MGCOHNA@SetThreadpoolWait?$AA@ 0000000180014bb8     LIBCMT:winapisupp.obj
 0002:00002bd0       ??_C@_0BE@OCIOMIMP@CloseThreadpoolWait?$AA@ 0000000180014bd0     LIBCMT:winapisupp.obj
 0002:00002be8       ??_C@_0BJ@LKGHFHBO@FlushProcessWriteBuffers?$AA@ 0000000180014be8     LIBCMT:winapisupp.obj
 0002:00002c08       ??_C@_0BP@KALKKPMO@FreeLibraryWhenCallbackReturns?$AA@ 0000000180014c08     LIBCMT:winapisupp.obj
 0002:00002c28       ??_C@_0BK@DFNBACLA@GetCurrentProcessorNumber?$AA@ 0000000180014c28     LIBCMT:winapisupp.obj
 0002:00002c48       ??_C@_0BP@KHGALBC@GetLogicalProcessorInformation?$AA@ 0000000180014c48     LIBCMT:winapisupp.obj
 0002:00002c68       ??_C@_0BE@FKKLLFLM@CreateSymbolicLinkW?$AA@ 0000000180014c68     LIBCMT:winapisupp.obj
 0002:00002c80       ??_C@_0BJ@OHNKDLIJ@SetDefaultDllDirectories?$AA@ 0000000180014c80     LIBCMT:winapisupp.obj
 0002:00002ca0       ??_C@_0BE@LJANKFHF@EnumSystemLocalesEx?$AA@ 0000000180014ca0     LIBCMT:winapisupp.obj
 0002:00002cb8       ??_C@_0BA@IHGNDAEB@CompareStringEx?$AA@ 0000000180014cb8     LIBCMT:winapisupp.obj
 0002:00002cc8       ??_C@_0BA@EPCJIIPD@GetDateFormatEx?$AA@ 0000000180014cc8     LIBCMT:winapisupp.obj
 0002:00002cd8       ??_C@_0BA@ONOKGCMP@GetLocaleInfoEx?$AA@ 0000000180014cd8     LIBCMT:winapisupp.obj
 0002:00002ce8       ??_C@_0BA@CIJJKCJJ@GetTimeFormatEx?$AA@ 0000000180014ce8     LIBCMT:winapisupp.obj
 0002:00002cf8       ??_C@_0BJ@PBCCBIPI@GetUserDefaultLocaleName?$AA@ 0000000180014cf8     LIBCMT:winapisupp.obj
 0002:00002d18       ??_C@_0BC@CELBKLLA@IsValidLocaleName?$AA@ 0000000180014d18     LIBCMT:winapisupp.obj
 0002:00002d30       ??_C@_0O@KKBNKAPF@LCMapStringEx?$AA@ 0000000180014d30     LIBCMT:winapisupp.obj
 0002:00002d40       ??_C@_0BE@JOGNEJCI@GetCurrentPackageId?$AA@ 0000000180014d40     LIBCMT:winapisupp.obj
 0002:00002d58       ??_C@_0P@CDHHOHKP@GetTickCount64?$AA@ 0000000180014d58     LIBCMT:winapisupp.obj
 0002:00002d68       ??_C@_0BO@KPCLFDJJ@GetFileInformationByHandleExW?$AA@ 0000000180014d68     LIBCMT:winapisupp.obj
 0002:00002d88       ??_C@_0BM@MHIDLABK@SetFileInformationByHandleW?$AA@ 0000000180014d88     LIBCMT:winapisupp.obj
 0002:00002da8       _pDestructExceptionObject  0000000180014da8     LIBCMT:frame.obj
 0002:00002db0       ??_C@_05KLBDPFGC@e?$CL000?$AA@ 0000000180014db0     LIBCMT:cvt.obj
 0002:00002db8       __real@0000000000000000    0000000180014db8     LIBCMT:cvt.obj
 0002:00002dc0       LcidToLocaleNameTable      0000000180014dc0     LIBCMT:winapinls.obj
 0002:00003c00       LocaleNameToIndexTable     0000000180015c00     LIBCMT:winapinls.obj
 0002:00004a40       ??_C@_15EMKDOKLE@?$AAa?$AAr?$AA?$AA@ 0000000180016a40     LIBCMT:winapinls.obj
 0002:00004a48       ??_C@_15KNPADPLH@?$AAb?$AAg?$AA?$AA@ 0000000180016a48     LIBCMT:winapinls.obj
 0002:00004a50       ??_C@_15EDMHLDMO@?$AAc?$AAa?$AA?$AA@ 0000000180016a50     LIBCMT:winapinls.obj
 0002:00004a58       ??_C@_1O@BPEAJADD@?$AAz?$AAh?$AA?9?$AAC?$AAH?$AAS?$AA?$AA@ 0000000180016a58     LIBCMT:winapinls.obj
 0002:00004a68       ??_C@_15LJNHCMNK@?$AAc?$AAs?$AA?$AA@ 0000000180016a68     LIBCMT:winapinls.obj
 0002:00004a70       ??_C@_15FOMCIDHG@?$AAd?$AAa?$AA?$AA@ 0000000180016a70     LIBCMT:winapinls.obj
 0002:00004a78       ??_C@_15NBKABECB@?$AAd?$AAe?$AA?$AA@ 0000000180016a78     LIBCMT:winapinls.obj
 0002:00004a80       ??_C@_15GHPEIIAO@?$AAe?$AAl?$AA?$AA@ 0000000180016a80     LIBCMT:winapinls.obj
 0002:00004a88       ??_C@_15MNPNEAIF@?$AAe?$AAn?$AA?$AA@ 0000000180016a88     LIBCMT:winapinls.obj
 0002:00004a90       ??_C@_15GPIOMPMH@?$AAe?$AAs?$AA?$AA@ 0000000180016a90     LIBCMT:winapinls.obj
 0002:00004a98       ??_C@_15NGLOAKJC@?$AAf?$AAi?$AA?$AA@ 0000000180016a98     LIBCMT:winapinls.obj
 0002:00004aa0       ??_C@_15FBKGNKAM@?$AAf?$AAr?$AA?$AA@ 0000000180016aa0     LIBCMT:winapinls.obj
 0002:00004aa8       ??_C@_15KGGCNEFK@?$AAh?$AAe?$AA?$AA@ 0000000180016aa8     LIBCMT:winapinls.obj
 0002:00004ab0       ??_C@_15PGHLIDMF@?$AAh?$AAu?$AA?$AA@ 0000000180016ab0     LIBCMT:winapinls.obj
 0002:00004ab8       ??_C@_15BIEMAPLM@?$AAi?$AAs?$AA?$AA@ 0000000180016ab8     LIBCMT:winapinls.obj
 0002:00004ac0       ??_C@_15IFJLDHAF@?$AAi?$AAt?$AA?$AA@ 0000000180016ac0     LIBCMT:winapinls.obj
 0002:00004ac8       ??_C@_15GEMIOCAG@?$AAj?$AAa?$AA?$AA@ 0000000180016ac8     LIBCMT:winapinls.obj
 0002:00004ad0       ??_C@_15EPELEGJA@?$AAk?$AAo?$AA?$AA@ 0000000180016ad0     LIBCMT:winapinls.obj
 0002:00004ad8       ??_C@_15NDDHIMN@?$AAn?$AAl?$AA?$AA@ 0000000180016ad8     LIBCMT:winapinls.obj
 0002:00004ae0       ??_C@_15BPIGNHCD@?$AAn?$AAo?$AA?$AA@ 0000000180016ae0     LIBCMT:winapinls.obj
 0002:00004ae8       ??_C@_15DEOPBLCG@?$AAp?$AAl?$AA?$AA@ 0000000180016ae8     LIBCMT:winapinls.obj
 0002:00004af0       ??_C@_15KBECGEFG@?$AAp?$AAt?$AA?$AA@ 0000000180016af0     LIBCMT:winapinls.obj
 0002:00004af8       ??_C@_15GLJCBFMD@?$AAr?$AAo?$AA?$AA@ 0000000180016af8     LIBCMT:winapinls.obj
 0002:00004b00       ??_C@_15FEDGKCDI@?$AAr?$AAu?$AA?$AA@ 0000000180016b00     LIBCMT:winapinls.obj
 0002:00004b08       ??_C@_15GLKMLLHM@?$AAh?$AAr?$AA?$AA@ 0000000180016b08     LIBCMT:winapinls.obj
 0002:00004b10       ??_C@_15CPKMFBDB@?$AAs?$AAk?$AA?$AA@ 0000000180016b10     LIBCMT:winapinls.obj
 0002:00004b18       ??_C@_15BAAIOGMK@?$AAs?$AAq?$AA?$AA@ 0000000180016b18     LIBCMT:winapinls.obj
 0002:00004b20       ??_C@_15INNPNOHD@?$AAs?$AAv?$AA?$AA@ 0000000180016b20     LIBCMT:winapinls.obj
 0002:00004b28       ??_C@_15CABMMOGH@?$AAt?$AAh?$AA?$AA@ 0000000180016b28     LIBCMT:winapinls.obj
 0002:00004b30       ??_C@_15BPLIHJJM@?$AAt?$AAr?$AA?$AA@ 0000000180016b30     LIBCMT:winapinls.obj
 0002:00004b38       ??_C@_15NEOEKKDJ@?$AAu?$AAr?$AA?$AA@ 0000000180016b38     LIBCMT:winapinls.obj
 0002:00004b40       ??_C@_15NFICGAJK@?$AAi?$AAd?$AA?$AA@ 0000000180016b40     LIBCMT:winapinls.obj
 0002:00004b48       ??_C@_15PJPFLCCM@?$AAu?$AAk?$AA?$AA@ 0000000180016b48     LIBCMT:winapinls.obj
 0002:00004b50       ??_C@_15HPJPHDM@?$AAb?$AAe?$AA?$AA@ 0000000180016b50     LIBCMT:winapinls.obj
 0002:00004b58       ??_C@_15LCHLGJII@?$AAs?$AAl?$AA?$AA@ 0000000180016b58     LIBCMT:winapinls.obj
 0002:00004b60       ??_C@_15PCFJPHHO@?$AAe?$AAt?$AA?$AA@ 0000000180016b60     LIBCMT:winapinls.obj
 0002:00004b68       ??_C@_15HPFPGODN@?$AAl?$AAv?$AA?$AA@ 0000000180016b68     LIBCMT:winapinls.obj
 0002:00004b70       ??_C@_15NFFGKGLG@?$AAl?$AAt?$AA?$AA@ 0000000180016b70     LIBCMT:winapinls.obj
 0002:00004b78       ??_C@_15BDAKCCHN@?$AAf?$AAa?$AA?$AA@ 0000000180016b78     LIBCMT:winapinls.obj
 0002:00004b80       ??_C@_15NFGIAIAJ@?$AAv?$AAi?$AA?$AA@ 0000000180016b80     LIBCMT:winapinls.obj
 0002:00004b88       ??_C@_15LMKNDMHN@?$AAh?$AAy?$AA?$AA@ 0000000180016b88     LIBCMT:winapinls.obj
 0002:00004b90       ??_C@_15IJBHMCFL@?$AAa?$AAz?$AA?$AA@ 0000000180016b90     LIBCMT:winapinls.obj
 0002:00004b98       ??_C@_15EKOFJABL@?$AAe?$AAu?$AA?$AA@ 0000000180016b98     LIBCMT:winapinls.obj
 0002:00004ba0       ??_C@_15BGHADCNK@?$AAm?$AAk?$AA?$AA@ 0000000180016ba0     LIBCMT:winapinls.obj
 0002:00004ba8       ??_C@_15JDNICKHM@?$AAa?$AAf?$AA?$AA@ 0000000180016ba8     LIBCMT:winapinls.obj
 0002:00004bb0       ??_C@_15KPJEDBKD@?$AAk?$AAa?$AA?$AA@ 0000000180016bb0     LIBCMT:winapinls.obj
 0002:00004bb8       ??_C@_15PDNFFFEO@?$AAf?$AAo?$AA?$AA@ 0000000180016bb8     LIBCMT:winapinls.obj
 0002:00004bc0       ??_C@_15OMLEGLOC@?$AAh?$AAi?$AA?$AA@ 0000000180016bc0     LIBCMT:winapinls.obj
 0002:00004bc8       ??_C@_15IDNNENKK@?$AAm?$AAs?$AA?$AA@ 0000000180016bc8     LIBCMT:winapinls.obj
 0002:00004bd0       ??_C@_15MACJNBMH@?$AAk?$AAk?$AA?$AA@ 0000000180016bd0     LIBCMT:winapinls.obj
 0002:00004bd8       ??_C@_15DKDJEOND@?$AAk?$AAy?$AA?$AA@ 0000000180016bd8     LIBCMT:winapinls.obj
 0002:00004be0       ??_C@_15DFGDLJBG@?$AAs?$AAw?$AA?$AA@ 0000000180016be0     LIBCMT:winapinls.obj
 0002:00004be8       ??_C@_15BBFAICNG@?$AAu?$AAz?$AA?$AA@ 0000000180016be8     LIBCMT:winapinls.obj
 0002:00004bf0       ??_C@_15DKNDCGEA@?$AAt?$AAt?$AA?$AA@ 0000000180016bf0     LIBCMT:winapinls.obj
 0002:00004bf8       ??_C@_15MGIFMDPL@?$AAp?$AAa?$AA?$AA@ 0000000180016bf8     LIBCMT:winapinls.obj
 0002:00004c00       ??_C@_15HCNDBBA@?$AAg?$AAu?$AA?$AA@ 0000000180016c00     LIBCMT:winapinls.obj
 0002:00004c08       ??_C@_15FNBEIBON@?$AAt?$AAa?$AA?$AA@ 0000000180016c08     LIBCMT:winapinls.obj
 0002:00004c10       ??_C@_15NCHGBGLK@?$AAt?$AAe?$AA?$AA@ 0000000180016c10     LIBCMT:winapinls.obj
 0002:00004c18       ??_C@_15PHPHCBPF@?$AAk?$AAn?$AA?$AA@ 0000000180016c18     LIBCMT:winapinls.obj
 0002:00004c20       ??_C@_15DLGBCKMP@?$AAm?$AAr?$AA?$AA@ 0000000180016c20     LIBCMT:winapinls.obj
 0002:00004c28       ??_C@_15EABBLBFF@?$AAs?$AAa?$AA?$AA@ 0000000180016c28     LIBCMT:winapinls.obj
 0002:00004c30       ??_C@_15CBKOMCOI@?$AAm?$AAn?$AA?$AA@ 0000000180016c30     LIBCMT:winapinls.obj
 0002:00004c38       ??_C@_15CKDMCJAF@?$AAg?$AAl?$AA?$AA@ 0000000180016c38     LIBCMT:winapinls.obj
 0002:00004c40       ??_C@_17CNJFBPG@?$AAk?$AAo?$AAk?$AA?$AA@ 0000000180016c40     LIBCMT:winapinls.obj
 0002:00004c48       ??_C@_17FFBJICPL@?$AAs?$AAy?$AAr?$AA?$AA@ 0000000180016c48     LIBCMT:winapinls.obj
 0002:00004c50       ??_C@_17KPNDCPAF@?$AAd?$AAi?$AAv?$AA?$AA@ 0000000180016c50     LIBCMT:winapinls.obj
 0002:00004c58       ??_C@_11LOCGONAA@?$AA?$AA@ 0000000180016c58     LIBCMT:winapinls.obj
 0002:00004c60       ??_C@_1M@OKAHONE@?$AAa?$AAr?$AA?9?$AAS?$AAA?$AA?$AA@ 0000000180016c60     LIBCMT:winapinls.obj
 0002:00004c70       ??_C@_1M@FFFIGIGK@?$AAb?$AAg?$AA?9?$AAB?$AAG?$AA?$AA@ 0000000180016c70     LIBCMT:winapinls.obj
 0002:00004c80       ??_C@_1M@BJNKEDC@?$AAc?$AAa?$AA?9?$AAE?$AAS?$AA?$AA@ 0000000180016c80     LIBCMT:winapinls.obj
 0002:00004c90       ??_C@_1M@IJJHFJHA@?$AAc?$AAs?$AA?9?$AAC?$AAZ?$AA?$AA@ 0000000180016c90     LIBCMT:winapinls.obj
 0002:00004ca0       ??_C@_1M@CLPEOBGI@?$AAd?$AAa?$AA?9?$AAD?$AAK?$AA?$AA@ 0000000180016ca0     LIBCMT:winapinls.obj
 0002:00004cb0       ??_C@_1M@MCMADGCB@?$AAd?$AAe?$AA?9?$AAD?$AAE?$AA?$AA@ 0000000180016cb0     LIBCMT:winapinls.obj
 0002:00004cc0       ??_C@_1M@OOCKEMAM@?$AAe?$AAl?$AA?9?$AAG?$AAR?$AA?$AA@ 0000000180016cc0     LIBCMT:winapinls.obj
 0002:00004cd0       ??_C@_1M@DDNJFGID@?$AAf?$AAi?$AA?9?$AAF?$AAI?$AA?$AA@ 0000000180016cd0     LIBCMT:winapinls.obj
 0002:00004ce0       ??_C@_1M@GLIPPMAC@?$AAf?$AAr?$AA?9?$AAF?$AAR?$AA?$AA@ 0000000180016ce0     LIBCMT:winapinls.obj
 0002:00004cf0       ??_C@_1M@GFMCHPE@?$AAh?$AAe?$AA?9?$AAI?$AAL?$AA?$AA@ 0000000180016cf0     LIBCMT:winapinls.obj
 0002:00004d00       ??_C@_1M@MHLPGNKM@?$AAh?$AAu?$AA?9?$AAH?$AAU?$AA?$AA@ 0000000180016d00     LIBCMT:winapinls.obj
 0002:00004d10       ??_C@_1M@LPDDNNPN@?$AAi?$AAs?$AA?9?$AAI?$AAS?$AA?$AA@ 0000000180016d10     LIBCMT:winapinls.obj
 0002:00004d20       ??_C@_1M@MADIPODN@?$AAi?$AAt?$AA?9?$AAI?$AAT?$AA?$AA@ 0000000180016d20     LIBCMT:winapinls.obj
 0002:00004d30       ??_C@_1M@IHBJJGG@?$AAn?$AAl?$AA?9?$AAN?$AAL?$AA?$AA@ 0000000180016d30     LIBCMT:winapinls.obj
 0002:00004d40       ??_C@_1M@EANAGDL@?$AAn?$AAb?$AA?9?$AAN?$AAO?$AA?$AA@ 0000000180016d40     LIBCMT:winapinls.obj
 0002:00004d50       ??_C@_1M@NEIEMEGP@?$AAp?$AAl?$AA?9?$AAP?$AAL?$AA?$AA@ 0000000180016d50     LIBCMT:winapinls.obj
 0002:00004d60       ??_C@_1M@BOCFIGEP@?$AAp?$AAt?$AA?9?$AAB?$AAR?$AA?$AA@ 0000000180016d60     LIBCMT:winapinls.obj
 0002:00004d70       ??_C@_1M@IMPFOPBG@?$AAr?$AAo?$AA?9?$AAR?$AAO?$AA?$AA@ 0000000180016d70     LIBCMT:winapinls.obj
 0002:00004d80       ??_C@_1M@IDNNEJMM@?$AAr?$AAu?$AA?9?$AAR?$AAU?$AA?$AA@ 0000000180016d80     LIBCMT:winapinls.obj
 0002:00004d90       ??_C@_1M@LILEEOGM@?$AAh?$AAr?$AA?9?$AAH?$AAR?$AA?$AA@ 0000000180016d90     LIBCMT:winapinls.obj
 0002:00004da0       ??_C@_1M@FKIFEHPB@?$AAs?$AAk?$AA?9?$AAS?$AAK?$AA?$AA@ 0000000180016da0     LIBCMT:winapinls.obj
 0002:00004db0       ??_C@_1M@LJMAMNPJ@?$AAs?$AAq?$AA?9?$AAA?$AAL?$AA?$AA@ 0000000180016db0     LIBCMT:winapinls.obj
 0002:00004dc0       ??_C@_1M@GIAKDKJK@?$AAs?$AAv?$AA?9?$AAS?$AAE?$AA?$AA@ 0000000180016dc0     LIBCMT:winapinls.obj
 0002:00004dd0       ??_C@_1M@MKJKIKCL@?$AAt?$AAh?$AA?9?$AAT?$AAH?$AA?$AA@ 0000000180016dd0     LIBCMT:winapinls.obj
 0002:00004de0       ??_C@_1M@MFLCCMPB@?$AAt?$AAr?$AA?9?$AAT?$AAR?$AA?$AA@ 0000000180016de0     LIBCMT:winapinls.obj
 0002:00004df0       ??_C@_1M@OIJHDKJN@?$AAu?$AAr?$AA?9?$AAP?$AAK?$AA?$AA@ 0000000180016df0     LIBCMT:winapinls.obj
 0002:00004e00       ??_C@_1M@LHIPCIEK@?$AAi?$AAd?$AA?9?$AAI?$AAD?$AA?$AA@ 0000000180016e00     LIBCMT:winapinls.obj
 0002:00004e10       ??_C@_1M@MFMOBGI@?$AAu?$AAk?$AA?9?$AAU?$AAA?$AA?$AA@ 0000000180016e10     LIBCMT:winapinls.obj
 0002:00004e20       ??_C@_1M@OBGLJIPL@?$AAb?$AAe?$AA?9?$AAB?$AAY?$AA?$AA@ 0000000180016e20     LIBCMT:winapinls.obj
 0002:00004e30       ??_C@_1M@BCFAJEAD@?$AAs?$AAl?$AA?9?$AAS?$AAI?$AA?$AA@ 0000000180016e30     LIBCMT:winapinls.obj
 0002:00004e40       ??_C@_1M@FKFFEDDN@?$AAe?$AAt?$AA?9?$AAE?$AAE?$AA?$AA@ 0000000180016e40     LIBCMT:winapinls.obj
 0002:00004e50       ??_C@_1M@KGKKAACI@?$AAl?$AAv?$AA?9?$AAL?$AAV?$AA?$AA@ 0000000180016e50     LIBCMT:winapinls.obj
 0002:00004e60       ??_C@_1M@IFGBIJO@?$AAl?$AAt?$AA?9?$AAL?$AAT?$AA?$AA@ 0000000180016e60     LIBCMT:winapinls.obj
 0002:00004e70       ??_C@_1M@FGEAHEDM@?$AAf?$AAa?$AA?9?$AAI?$AAR?$AA?$AA@ 0000000180016e70     LIBCMT:winapinls.obj
 0002:00004e80       ??_C@_1M@KBMAIBFN@?$AAv?$AAi?$AA?9?$AAV?$AAN?$AA?$AA@ 0000000180016e80     LIBCMT:winapinls.obj
 0002:00004e90       ??_C@_1M@GPCBKDJK@?$AAh?$AAy?$AA?9?$AAA?$AAM?$AA?$AA@ 0000000180016e90     LIBCMT:winapinls.obj
 0002:00004ea0       ??_C@_1BG@BECMDDJB@?$AAa?$AAz?$AA?9?$AAA?$AAZ?$AA?9?$AAL?$AAa?$AAt?$AAn?$AA?$AA@ 0000000180016ea0     LIBCMT:winapinls.obj
 0002:00004eb8       ??_C@_1M@MAOFCAEA@?$AAe?$AAu?$AA?9?$AAE?$AAS?$AA?$AA@ 0000000180016eb8     LIBCMT:winapinls.obj
 0002:00004ec8       ??_C@_1M@IGHABKPI@?$AAm?$AAk?$AA?9?$AAM?$AAK?$AA?$AA@ 0000000180016ec8     LIBCMT:winapinls.obj
 0002:00004ed8       ??_C@_1M@IAIGNEJG@?$AAt?$AAn?$AA?9?$AAZ?$AAA?$AA?$AA@ 0000000180016ed8     LIBCMT:winapinls.obj
 0002:00004ee8       ??_C@_1M@IIJCOJFA@?$AAx?$AAh?$AA?9?$AAZ?$AAA?$AA?$AA@ 0000000180016ee8     LIBCMT:winapinls.obj
 0002:00004ef8       ??_C@_1M@LGPJHNJH@?$AAz?$AAu?$AA?9?$AAZ?$AAA?$AA?$AA@ 0000000180016ef8     LIBCMT:winapinls.obj
 0002:00004f08       ??_C@_1M@HOKAOIO@?$AAa?$AAf?$AA?9?$AAZ?$AAA?$AA?$AA@ 0000000180016f08     LIBCMT:winapinls.obj
 0002:00004f18       ??_C@_1M@DPCLHLIE@?$AAk?$AAa?$AA?9?$AAG?$AAE?$AA?$AA@ 0000000180016f18     LIBCMT:winapinls.obj
 0002:00004f28       ??_C@_1M@BLKMHJBI@?$AAf?$AAo?$AA?9?$AAF?$AAO?$AA?$AA@ 0000000180016f28     LIBCMT:winapinls.obj
 0002:00004f38       ??_C@_1M@LGGJAPPB@?$AAh?$AAi?$AA?9?$AAI?$AAN?$AA?$AA@ 0000000180016f38     LIBCMT:winapinls.obj
 0002:00004f48       ??_C@_1M@FIKPIHFE@?$AAm?$AAt?$AA?9?$AAM?$AAT?$AA?$AA@ 0000000180016f48     LIBCMT:winapinls.obj
 0002:00004f58       ??_C@_1M@HEGGPBFA@?$AAs?$AAe?$AA?9?$AAN?$AAO?$AA?$AA@ 0000000180016f58     LIBCMT:winapinls.obj
 0002:00004f68       ??_C@_1M@EIBJEEPA@?$AAm?$AAs?$AA?9?$AAM?$AAY?$AA?$AA@ 0000000180016f68     LIBCMT:winapinls.obj
 0002:00004f78       ??_C@_1M@FHLBGMPP@?$AAk?$AAk?$AA?9?$AAK?$AAZ?$AA?$AA@ 0000000180016f78     LIBCMT:winapinls.obj
 0002:00004f88       ??_C@_1M@NGJJLCGI@?$AAk?$AAy?$AA?9?$AAK?$AAG?$AA?$AA@ 0000000180016f88     LIBCMT:winapinls.obj
 0002:00004f98       ??_C@_1M@GIENNBFC@?$AAs?$AAw?$AA?9?$AAK?$AAE?$AA?$AA@ 0000000180016f98     LIBCMT:winapinls.obj
 0002:00004fa8       ??_C@_1BG@NDGMJIMJ@?$AAu?$AAz?$AA?9?$AAU?$AAZ?$AA?9?$AAL?$AAa?$AAt?$AAn?$AA?$AA@ 0000000180016fa8     LIBCMT:winapinls.obj
 0002:00004fc0       ??_C@_1M@IDCCIHBC@?$AAt?$AAt?$AA?9?$AAR?$AAU?$AA?$AA@ 0000000180016fc0     LIBCMT:winapinls.obj
 0002:00004fd0       ??_C@_1M@LOICPMOJ@?$AAb?$AAn?$AA?9?$AAI?$AAN?$AA?$AA@ 0000000180016fd0     LIBCMT:winapinls.obj
 0002:00004fe0       ??_C@_1M@KPKKNEAH@?$AAp?$AAa?$AA?9?$AAI?$AAN?$AA?$AA@ 0000000180016fe0     LIBCMT:winapinls.obj
 0002:00004ff0       ??_C@_1M@PJGPPBOG@?$AAg?$AAu?$AA?9?$AAI?$AAN?$AA?$AA@ 0000000180016ff0     LIBCMT:winapinls.obj
 0002:00005000       ??_C@_1M@KMKMOPHI@?$AAt?$AAa?$AA?9?$AAI?$AAN?$AA?$AA@ 0000000180017000     LIBCMT:winapinls.obj
 0002:00005010       ??_C@_1M@KFEHEPAC@?$AAt?$AAe?$AA?9?$AAI?$AAN?$AA?$AA@ 0000000180017010     LIBCMT:winapinls.obj
 0002:00005020       ??_C@_1M@CDCLMGHI@?$AAk?$AAn?$AA?9?$AAI?$AAN?$AA?$AA@ 0000000180017020     LIBCMT:winapinls.obj
 0002:00005030       ??_C@_1M@MIODLDKF@?$AAm?$AAl?$AA?9?$AAI?$AAN?$AA?$AA@ 0000000180017030     LIBCMT:winapinls.obj
 0002:00005040       ??_C@_1M@PBIEACPO@?$AAm?$AAr?$AA?9?$AAI?$AAN?$AA?$AA@ 0000000180017040     LIBCMT:winapinls.obj
 0002:00005050       ??_C@_1M@NIDEAGPH@?$AAs?$AAa?$AA?9?$AAI?$AAN?$AA?$AA@ 0000000180017050     LIBCMT:winapinls.obj
 0002:00005060       ??_C@_1M@FHIHCBIO@?$AAm?$AAn?$AA?9?$AAM?$AAN?$AA?$AA@ 0000000180017060     LIBCMT:winapinls.obj
 0002:00005070       ??_C@_1M@JAIJPENP@?$AAc?$AAy?$AA?9?$AAG?$AAB?$AA?$AA@ 0000000180017070     LIBCMT:winapinls.obj
 0002:00005080       ??_C@_1M@PHGFBEPN@?$AAg?$AAl?$AA?9?$AAE?$AAS?$AA?$AA@ 0000000180017080     LIBCMT:winapinls.obj
 0002:00005090       ??_C@_1O@KPIPDNCP@?$AAk?$AAo?$AAk?$AA?9?$AAI?$AAN?$AA?$AA@ 0000000180017090     LIBCMT:winapinls.obj
 0002:000050a0       ??_C@_1O@KNHJLDJA@?$AAs?$AAy?$AAr?$AA?9?$AAS?$AAY?$AA?$AA@ 00000001800170a0     LIBCMT:winapinls.obj
 0002:000050b0       ??_C@_1O@MKEKBLAH@?$AAd?$AAi?$AAv?$AA?9?$AAM?$AAV?$AA?$AA@ 00000001800170b0     LIBCMT:winapinls.obj
 0002:000050c0       ??_C@_1O@OHDCKDDF@?$AAq?$AAu?$AAz?$AA?9?$AAB?$AAO?$AA?$AA@ 00000001800170c0     LIBCMT:winapinls.obj
 0002:000050d0       ??_C@_1M@LEPJNLFD@?$AAn?$AAs?$AA?9?$AAZ?$AAA?$AA?$AA@ 00000001800170d0     LIBCMT:winapinls.obj
 0002:000050e0       ??_C@_1M@OMLEIIJB@?$AAm?$AAi?$AA?9?$AAN?$AAZ?$AA?$AA@ 00000001800170e0     LIBCMT:winapinls.obj
 0002:000050f0       ??_C@_1M@PMPEAILG@?$AAa?$AAr?$AA?9?$AAI?$AAQ?$AA?$AA@ 00000001800170f0     LIBCMT:winapinls.obj
 0002:00005100       ??_C@_1M@CNKPNOEE@?$AAd?$AAe?$AA?9?$AAC?$AAH?$AA?$AA@ 0000000180017100     LIBCMT:winapinls.obj
 0002:00005110       ??_C@_1M@LKMGMLKO@?$AAe?$AAn?$AA?9?$AAG?$AAB?$AA?$AA@ 0000000180017110     LIBCMT:winapinls.obj
 0002:00005120       ??_C@_1M@PGKJFFGL@?$AAe?$AAs?$AA?9?$AAM?$AAX?$AA?$AA@ 0000000180017120     LIBCMT:winapinls.obj
 0002:00005130       ??_C@_1M@DNNANBDC@?$AAf?$AAr?$AA?9?$AAB?$AAE?$AA?$AA@ 0000000180017130     LIBCMT:winapinls.obj
 0002:00005140       ??_C@_1M@HLGMDFHM@?$AAi?$AAt?$AA?9?$AAC?$AAH?$AA?$AA@ 0000000180017140     LIBCMT:winapinls.obj
 0002:00005150       ??_C@_1M@CLLBGJH@?$AAn?$AAl?$AA?9?$AAB?$AAE?$AA?$AA@ 0000000180017150     LIBCMT:winapinls.obj
 0002:00005160       ??_C@_1M@BODBOGLF@?$AAn?$AAn?$AA?9?$AAN?$AAO?$AA?$AA@ 0000000180017160     LIBCMT:winapinls.obj
 0002:00005170       ??_C@_1M@HFFAHKAD@?$AAp?$AAt?$AA?9?$AAP?$AAT?$AA?$AA@ 0000000180017170     LIBCMT:winapinls.obj
 0002:00005180       ??_C@_1BG@LNOAKHIE@?$AAs?$AAr?$AA?9?$AAS?$AAP?$AA?9?$AAL?$AAa?$AAt?$AAn?$AA?$AA@ 0000000180017180     LIBCMT:winapinls.obj
 0002:00005198       ??_C@_1M@HBMHBGAK@?$AAs?$AAv?$AA?9?$AAF?$AAI?$AA?$AA@ 0000000180017198     LIBCMT:winapinls.obj
 0002:000051a8       ??_C@_1BG@DGCJGJBE@?$AAa?$AAz?$AA?9?$AAA?$AAZ?$AA?9?$AAC?$AAy?$AAr?$AAl?$AA?$AA@ 00000001800171a8     LIBCMT:winapinls.obj
 0002:000051c0       ??_C@_1M@KEJDAAHB@?$AAs?$AAe?$AA?9?$AAS?$AAE?$AA?$AA@ 00000001800171c0     LIBCMT:winapinls.obj
 0002:000051d0       ??_C@_1M@HEIBJJAD@?$AAm?$AAs?$AA?9?$AAB?$AAN?$AA?$AA@ 00000001800171d0     LIBCMT:winapinls.obj
 0002:000051e0       ??_C@_1BG@PBGJMCEM@?$AAu?$AAz?$AA?9?$AAU?$AAZ?$AA?9?$AAC?$AAy?$AAr?$AAl?$AA?$AA@ 00000001800171e0     LIBCMT:winapinls.obj
 0002:000051f8       ??_C@_1O@LAOBCMDF@?$AAq?$AAu?$AAz?$AA?9?$AAE?$AAC?$AA?$AA@ 00000001800171f8     LIBCMT:winapinls.obj
 0002:00005208       ??_C@_1M@POEEMAIO@?$AAa?$AAr?$AA?9?$AAE?$AAG?$AA?$AA@ 0000000180017208     LIBCMT:winapinls.obj
 0002:00005218       ??_C@_1M@EFAKDEDL@?$AAz?$AAh?$AA?9?$AAH?$AAK?$AA?$AA@ 0000000180017218     LIBCMT:winapinls.obj
 0002:00005228       ??_C@_1M@HKKIJHGI@?$AAd?$AAe?$AA?9?$AAA?$AAT?$AA?$AA@ 0000000180017228     LIBCMT:winapinls.obj
 0002:00005238       ??_C@_1M@KBFBEHJF@?$AAe?$AAn?$AA?9?$AAA?$AAU?$AA?$AA@ 0000000180017238     LIBCMT:winapinls.obj
 0002:00005248       ??_C@_1M@MNPLFAAH@?$AAe?$AAs?$AA?9?$AAE?$AAS?$AA?$AA@ 0000000180017248     LIBCMT:winapinls.obj
 0002:00005258       ??_C@_1M@HJOOJFMA@?$AAf?$AAr?$AA?9?$AAC?$AAA?$AA?$AA@ 0000000180017258     LIBCMT:winapinls.obj
 0002:00005268       ??_C@_1BG@JPOFPNAB@?$AAs?$AAr?$AA?9?$AAS?$AAP?$AA?9?$AAC?$AAy?$AAr?$AAl?$AA?$AA@ 0000000180017268     LIBCMT:winapinls.obj
 0002:00005280       ??_C@_1M@LNFOCMOB@?$AAs?$AAe?$AA?9?$AAF?$AAI?$AA?$AA@ 0000000180017280     LIBCMT:winapinls.obj
 0002:00005290       ??_C@_1O@MGJBOAMB@?$AAq?$AAu?$AAz?$AA?9?$AAP?$AAE?$AA?$AA@ 0000000180017290     LIBCMT:winapinls.obj
 0002:000052a0       ??_C@_1M@GJINLBOK@?$AAa?$AAr?$AA?9?$AAL?$AAY?$AA?$AA@ 00000001800172a0     LIBCMT:winapinls.obj
 0002:000052b0       ??_C@_1M@GGMNHJNL@?$AAz?$AAh?$AA?9?$AAS?$AAG?$AA?$AA@ 00000001800172b0     LIBCMT:winapinls.obj
 0002:000052c0       ??_C@_1M@HOIKODND@?$AAd?$AAe?$AA?9?$AAL?$AAU?$AA?$AA@ 00000001800172c0     LIBCMT:winapinls.obj
 0002:000052d0       ??_C@_1M@DDOCCGFG@?$AAe?$AAn?$AA?9?$AAC?$AAA?$AA?$AA@ 00000001800172d0     LIBCMT:winapinls.obj
 0002:000052e0       ??_C@_1M@BNOEMJLF@?$AAe?$AAs?$AA?9?$AAG?$AAT?$AA?$AA@ 00000001800172e0     LIBCMT:winapinls.obj
 0002:000052f0       ??_C@_1M@EOGNKEK@?$AAf?$AAr?$AA?9?$AAC?$AAH?$AA?$AA@ 00000001800172f0     LIBCMT:winapinls.obj
 0002:00005300       ??_C@_1M@FLIDJFHL@?$AAh?$AAr?$AA?9?$AAB?$AAA?$AA?$AA@ 0000000180017300     LIBCMT:winapinls.obj
 0002:00005310       ??_C@_1O@FMCELNAJ@?$AAs?$AAm?$AAj?$AA?9?$AAN?$AAO?$AA?$AA@ 0000000180017310     LIBCMT:winapinls.obj
 0002:00005320       ??_C@_1M@JHGLJMGJ@?$AAa?$AAr?$AA?9?$AAD?$AAZ?$AA?$AA@ 0000000180017320     LIBCMT:winapinls.obj
 0002:00005330       ??_C@_1M@JKKFDCNP@?$AAz?$AAh?$AA?9?$AAM?$AAO?$AA?$AA@ 0000000180017330     LIBCMT:winapinls.obj
 0002:00005340       ??_C@_1M@GEEFALPE@?$AAd?$AAe?$AA?9?$AAL?$AAI?$AA?$AA@ 0000000180017340     LIBCMT:winapinls.obj
 0002:00005350       ??_C@_1M@IGEOFBG@?$AAe?$AAn?$AA?9?$AAN?$AAZ?$AA?$AA@ 0000000180017350     LIBCMT:winapinls.obj
 0002:00005360       ??_C@_1M@KDBONEHP@?$AAe?$AAs?$AA?9?$AAC?$AAR?$AA?$AA@ 0000000180017360     LIBCMT:winapinls.obj
 0002:00005370       ??_C@_1M@FHMDOHNN@?$AAf?$AAr?$AA?9?$AAL?$AAU?$AA?$AA@ 0000000180017370     LIBCMT:winapinls.obj
 0002:00005380       ??_C@_1BG@NFKKMAFG@?$AAb?$AAs?$AA?9?$AAB?$AAA?$AA?9?$AAL?$AAa?$AAt?$AAn?$AA?$AA@ 0000000180017380     LIBCMT:winapinls.obj
 0002:00005398       ??_C@_1O@IMNBEMCI@?$AAs?$AAm?$AAj?$AA?9?$AAS?$AAE?$AA?$AA@ 0000000180017398     LIBCMT:winapinls.obj
 0002:000053a8       ??_C@_1M@DHHMBNDP@?$AAa?$AAr?$AA?9?$AAM?$AAA?$AA?$AA@ 00000001800173a8     LIBCMT:winapinls.obj
 0002:000053b8       ??_C@_1M@BNBLJCGH@?$AAe?$AAn?$AA?9?$AAI?$AAE?$AA?$AA@ 00000001800173b8     LIBCMT:winapinls.obj
 0002:000053c8       ??_C@_1M@GEPAFMDL@?$AAe?$AAs?$AA?9?$AAP?$AAA?$AA?$AA@ 00000001800173c8     LIBCMT:winapinls.obj
 0002:000053d8       ??_C@_1M@OJONDMDL@?$AAf?$AAr?$AA?9?$AAM?$AAC?$AA?$AA@ 00000001800173d8     LIBCMT:winapinls.obj
 0002:000053e8       ??_C@_1BG@OBCNFJB@?$AAs?$AAr?$AA?9?$AAB?$AAA?$AA?9?$AAL?$AAa?$AAt?$AAn?$AA?$AA@ 00000001800173e8     LIBCMT:winapinls.obj
 0002:00005400       ??_C@_1O@KEMEEGPO@?$AAs?$AAm?$AAa?$AA?9?$AAN?$AAO?$AA?$AA@ 0000000180017400     LIBCMT:winapinls.obj
 0002:00005410       ??_C@_1M@ELMGFODK@?$AAa?$AAr?$AA?9?$AAT?$AAN?$AA?$AA@ 0000000180017410     LIBCMT:winapinls.obj
 0002:00005420       ??_C@_1M@BHDLHFAF@?$AAe?$AAn?$AA?9?$AAZ?$AAA?$AA?$AA@ 0000000180017420     LIBCMT:winapinls.obj
 0002:00005430       ??_C@_1M@BMGIGLIF@?$AAe?$AAs?$AA?9?$AAD?$AAO?$AA?$AA@ 0000000180017430     LIBCMT:winapinls.obj
 0002:00005440       ??_C@_1BG@CMBHIPBE@?$AAs?$AAr?$AA?9?$AAB?$AAA?$AA?9?$AAC?$AAy?$AAr?$AAl?$AA?$AA@ 0000000180017440     LIBCMT:winapinls.obj
 0002:00005458       ??_C@_1O@HEDBLHNP@?$AAs?$AAm?$AAa?$AA?9?$AAS?$AAE?$AA?$AA@ 0000000180017458     LIBCMT:winapinls.obj
 0002:00005468       ??_C@_1M@DAGCADIM@?$AAa?$AAr?$AA?9?$AAO?$AAM?$AA?$AA@ 0000000180017468     LIBCMT:winapinls.obj
 0002:00005478       ??_C@_1M@FODLMICG@?$AAe?$AAn?$AA?9?$AAJ?$AAM?$AA?$AA@ 0000000180017478     LIBCMT:winapinls.obj
 0002:00005488       ??_C@_1M@DNMLCIHB@?$AAe?$AAs?$AA?9?$AAV?$AAE?$AA?$AA@ 0000000180017488     LIBCMT:winapinls.obj
 0002:00005498       ??_C@_1O@EOKHMKJK@?$AAs?$AAm?$AAs?$AA?9?$AAF?$AAI?$AA?$AA@ 0000000180017498     LIBCMT:winapinls.obj
 0002:000054a8       ??_C@_1M@CAFJMKOF@?$AAa?$AAr?$AA?9?$AAY?$AAE?$AA?$AA@ 00000001800174a8     LIBCMT:winapinls.obj
 0002:000054b8       ??_C@_1M@CBFHIJLI@?$AAe?$AAn?$AA?9?$AAC?$AAB?$AA?$AA@ 00000001800174b8     LIBCMT:winapinls.obj
 0002:000054c8       ??_C@_1M@BGNFLDN@?$AAe?$AAs?$AA?9?$AAC?$AAO?$AA?$AA@ 00000001800174c8     LIBCMT:winapinls.obj
 0002:000054d8       ??_C@_1O@JMPHMAMC@?$AAs?$AAm?$AAn?$AA?9?$AAF?$AAI?$AA?$AA@ 00000001800174d8     LIBCMT:winapinls.obj
 0002:000054e8       ??_C@_1M@JLANABKE@?$AAa?$AAr?$AA?9?$AAS?$AAY?$AA?$AA@ 00000001800174e8     LIBCMT:winapinls.obj
 0002:000054f8       ??_C@_1M@HPKGCFGN@?$AAe?$AAn?$AA?9?$AAB?$AAZ?$AA?$AA@ 00000001800174f8     LIBCMT:winapinls.obj
 0002:00005508       ??_C@_1M@OLJCMLGM@?$AAe?$AAs?$AA?9?$AAP?$AAE?$AA?$AA@ 0000000180017508     LIBCMT:winapinls.obj
 0002:00005518       ??_C@_1M@MKKGFKLE@?$AAa?$AAr?$AA?9?$AAJ?$AAO?$AA?$AA@ 0000000180017518     LIBCMT:winapinls.obj
 0002:00005528       ??_C@_1M@EKPGLDNI@?$AAe?$AAn?$AA?9?$AAT?$AAT?$AA?$AA@ 0000000180017528     LIBCMT:winapinls.obj
 0002:00005538       ??_C@_1M@OONGHFHE@?$AAe?$AAs?$AA?9?$AAA?$AAR?$AA?$AA@ 0000000180017538     LIBCMT:winapinls.obj
 0002:00005548       ??_C@_1M@OOJFGBHE@?$AAa?$AAr?$AA?9?$AAL?$AAB?$AA?$AA@ 0000000180017548     LIBCMT:winapinls.obj
 0002:00005558       ??_C@_1M@GCEJHNEG@?$AAe?$AAn?$AA?9?$AAZ?$AAW?$AA?$AA@ 0000000180017558     LIBCMT:winapinls.obj
 0002:00005568       ??_C@_1M@JNOCAHJI@?$AAe?$AAs?$AA?9?$AAE?$AAC?$AA?$AA@ 0000000180017568     LIBCMT:winapinls.obj
 0002:00005578       ??_C@_1M@JEFHPGGB@?$AAa?$AAr?$AA?9?$AAK?$AAW?$AA?$AA@ 0000000180017578     LIBCMT:winapinls.obj
 0002:00005588       ??_C@_1M@MLKIBJOJ@?$AAe?$AAn?$AA?9?$AAP?$AAH?$AA?$AA@ 0000000180017588     LIBCMT:winapinls.obj
 0002:00005598       ??_C@_1M@BDNIPEND@?$AAe?$AAs?$AA?9?$AAC?$AAL?$AA?$AA@ 0000000180017598     LIBCMT:winapinls.obj
 0002:000055a8       ??_C@_1M@MPNMEKBD@?$AAa?$AAr?$AA?9?$AAA?$AAE?$AA?$AA@ 00000001800175a8     LIBCMT:winapinls.obj
 0002:000055b8       ??_C@_1M@KBJALCPI@?$AAe?$AAs?$AA?9?$AAU?$AAY?$AA?$AA@ 00000001800175b8     LIBCMT:winapinls.obj
 0002:000055c8       ??_C@_1M@LLCCOAGA@?$AAa?$AAr?$AA?9?$AAB?$AAH?$AA?$AA@ 00000001800175c8     LIBCMT:winapinls.obj
 0002:000055d8       ??_C@_1M@PBFNCDEL@?$AAe?$AAs?$AA?9?$AAP?$AAY?$AA?$AA@ 00000001800175d8     LIBCMT:winapinls.obj
 0002:000055e8       ??_C@_1M@EDGINPNP@?$AAa?$AAr?$AA?9?$AAQ?$AAA?$AA?$AA@ 00000001800175e8     LIBCMT:winapinls.obj
 0002:000055f8       ??_C@_1M@MKDBIIJI@?$AAe?$AAs?$AA?9?$AAB?$AAO?$AA?$AA@ 00000001800175f8     LIBCMT:winapinls.obj
 0002:00005608       ??_C@_1M@CPKKEBLD@?$AAe?$AAs?$AA?9?$AAS?$AAV?$AA?$AA@ 0000000180017608     LIBCMT:winapinls.obj
 0002:00005618       ??_C@_1M@NDBGMMJL@?$AAe?$AAs?$AA?9?$AAH?$AAN?$AA?$AA@ 0000000180017618     LIBCMT:winapinls.obj
 0002:00005628       ??_C@_1M@JIJIBHDP@?$AAe?$AAs?$AA?9?$AAN?$AAI?$AA?$AA@ 0000000180017628     LIBCMT:winapinls.obj
 0002:00005638       ??_C@_1M@CGFMKEEK@?$AAe?$AAs?$AA?9?$AAP?$AAR?$AA?$AA@ 0000000180017638     LIBCMT:winapinls.obj
 0002:00005648       ??_C@_1O@ICJHKIIK@?$AAz?$AAh?$AA?9?$AAC?$AAH?$AAT?$AA?$AA@ 0000000180017648     LIBCMT:winapinls.obj
 0002:00005658       ??_C@_15CLNEJCE@?$AAs?$AAr?$AA?$AA@ 0000000180017658     LIBCMT:winapinls.obj
 0002:00005660       ??_C@_1M@KAHEKEIG@?$AAa?$AAf?$AA?9?$AAz?$AAa?$AA?$AA@ 0000000180017660     LIBCMT:winapinls.obj
 0002:00005670       ??_C@_1M@GIECOABL@?$AAa?$AAr?$AA?9?$AAa?$AAe?$AA?$AA@ 0000000180017670     LIBCMT:winapinls.obj
 0002:00005680       ??_C@_1M@BMLMEKGI@?$AAa?$AAr?$AA?9?$AAb?$AAh?$AA?$AA@ 0000000180017680     LIBCMT:winapinls.obj
 0002:00005690       ??_C@_1M@DAPFDGGB@?$AAa?$AAr?$AA?9?$AAd?$AAz?$AA?$AA@ 0000000180017690     LIBCMT:winapinls.obj
 0002:000056a0       ??_C@_1M@FJNKGKIG@?$AAa?$AAr?$AA?9?$AAe?$AAg?$AA?$AA@ 00000001800176a0     LIBCMT:winapinls.obj
 0002:000056b0       ??_C@_1M@FLGKKCLO@?$AAa?$AAr?$AA?9?$AAi?$AAq?$AA?$AA@ 00000001800176b0     LIBCMT:winapinls.obj
 0002:000056c0       ??_C@_1M@GNDIPALM@?$AAa?$AAr?$AA?9?$AAj?$AAo?$AA?$AA@ 00000001800176c0     LIBCMT:winapinls.obj
 0002:000056d0       ??_C@_1M@DDMJFMGJ@?$AAa?$AAr?$AA?9?$AAk?$AAw?$AA?$AA@ 00000001800176d0     LIBCMT:winapinls.obj
 0002:000056e0       ??_C@_1M@EJALMLHM@?$AAa?$AAr?$AA?9?$AAl?$AAb?$AA?$AA@ 00000001800176e0     LIBCMT:winapinls.obj
 0002:000056f0       ??_C@_1M@MOBDBLOC@?$AAa?$AAr?$AA?9?$AAl?$AAy?$AA?$AA@ 00000001800176f0     LIBCMT:winapinls.obj
 0002:00005700       ??_C@_1M@JAOCLHDH@?$AAa?$AAr?$AA?9?$AAm?$AAa?$AA?$AA@ 0000000180017700     LIBCMT:winapinls.obj
 0002:00005710       ??_C@_1M@JHPMKJIE@?$AAa?$AAr?$AA?9?$AAo?$AAm?$AA?$AA@ 0000000180017710     LIBCMT:winapinls.obj
 0002:00005720       ??_C@_1M@OEPGHFNH@?$AAa?$AAr?$AA?9?$AAq?$AAa?$AA?$AA@ 0000000180017720     LIBCMT:winapinls.obj
 0002:00005730       ??_C@_1M@KJDONENM@?$AAa?$AAr?$AA?9?$AAs?$AAa?$AA?$AA@ 0000000180017730     LIBCMT:winapinls.obj
 0002:00005740       ??_C@_1M@DMJDKLKM@?$AAa?$AAr?$AA?9?$AAs?$AAy?$AA?$AA@ 0000000180017740     LIBCMT:winapinls.obj
 0002:00005750       ??_C@_1M@OMFIPEDC@?$AAa?$AAr?$AA?9?$AAt?$AAn?$AA?$AA@ 0000000180017750     LIBCMT:winapinls.obj
 0002:00005760       ??_C@_1M@IHMHGAON@?$AAa?$AAr?$AA?9?$AAy?$AAe?$AA?$AA@ 0000000180017760     LIBCMT:winapinls.obj
 0002:00005770       ??_C@_1BG@KDCPGJGB@?$AAa?$AAz?$AA?9?$AAa?$AAz?$AA?9?$AAc?$AAy?$AAr?$AAl?$AA?$AA@ 0000000180017770     LIBCMT:winapinls.obj
 0002:00005788       ??_C@_1BG@IBCKDDOE@?$AAa?$AAz?$AA?9?$AAa?$AAz?$AA?9?$AAl?$AAa?$AAt?$AAn?$AA?$AA@ 0000000180017788     LIBCMT:winapinls.obj
 0002:000057a0       ??_C@_1M@EGPFDCPD@?$AAb?$AAe?$AA?9?$AAb?$AAy?$AA?$AA@ 00000001800177a0     LIBCMT:winapinls.obj
 0002:000057b0       ??_C@_1M@PCMGMCGC@?$AAb?$AAg?$AA?9?$AAb?$AAg?$AA?$AA@ 00000001800177b0     LIBCMT:winapinls.obj
 0002:000057c0       ??_C@_1M@BJBMFGOB@?$AAb?$AAn?$AA?9?$AAi?$AAn?$AA?$AA@ 00000001800177c0     LIBCMT:winapinls.obj
 0002:000057d0       ??_C@_1BG@EAKMMACD@?$AAb?$AAs?$AA?9?$AAb?$AAa?$AA?9?$AAl?$AAa?$AAt?$AAn?$AA?$AA@ 00000001800177d0     LIBCMT:winapinls.obj
 0002:000057e8       ??_C@_1M@KGADAODK@?$AAc?$AAa?$AA?9?$AAe?$AAs?$AA?$AA@ 00000001800177e8     LIBCMT:winapinls.obj
 0002:000057f8       ??_C@_1M@COAJPDHI@?$AAc?$AAs?$AA?9?$AAc?$AAz?$AA?$AA@ 00000001800177f8     LIBCMT:winapinls.obj
 0002:00005808       ??_C@_1M@DHBHFONH@?$AAc?$AAy?$AA?9?$AAg?$AAb?$AA?$AA@ 0000000180017808     LIBCMT:winapinls.obj
 0002:00005818       ??_C@_1M@IMGKELGA@?$AAd?$AAa?$AA?9?$AAd?$AAk?$AA?$AA@ 0000000180017818     LIBCMT:winapinls.obj
 0002:00005828       ??_C@_1M@NNDGDNGA@?$AAd?$AAe?$AA?9?$AAa?$AAt?$AA?$AA@ 0000000180017828     LIBCMT:winapinls.obj
 0002:00005838       ??_C@_1M@IKDBHEEM@?$AAd?$AAe?$AA?9?$AAc?$AAh?$AA?$AA@ 0000000180017838     LIBCMT:winapinls.obj
 0002:00005848       ??_C@_1M@GFFOJMCJ@?$AAd?$AAe?$AA?9?$AAd?$AAe?$AA?$AA@ 0000000180017848     LIBCMT:winapinls.obj
 0002:00005858       ??_C@_1M@MDNLKBPM@?$AAd?$AAe?$AA?9?$AAl?$AAi?$AA?$AA@ 0000000180017858     LIBCMT:winapinls.obj
 0002:00005868       ??_C@_1M@NJBEEJNL@?$AAd?$AAe?$AA?9?$AAl?$AAu?$AA?$AA@ 0000000180017868     LIBCMT:winapinls.obj
 0002:00005878       ??_C@_1O@GNNELBAP@?$AAd?$AAi?$AAv?$AA?9?$AAm?$AAv?$AA?$AA@ 0000000180017878     LIBCMT:winapinls.obj
 0002:00005888       ??_C@_1M@EJLEOGAE@?$AAe?$AAl?$AA?9?$AAg?$AAr?$AA?$AA@ 0000000180017888     LIBCMT:winapinls.obj
 0002:00005898       ??_C@_1M@GMPONJN@?$AAe?$AAn?$AA?9?$AAa?$AAu?$AA?$AA@ 0000000180017898     LIBCMT:winapinls.obj
 0002:000058a8       ??_C@_1M@NIDIIPGF@?$AAe?$AAn?$AA?9?$AAb?$AAz?$AA?$AA@ 00000001800178a8     LIBCMT:winapinls.obj
 0002:000058b8       ??_C@_1M@JEHMIMFO@?$AAe?$AAn?$AA?9?$AAc?$AAa?$AA?$AA@ 00000001800178b8     LIBCMT:winapinls.obj
 0002:000058c8       ??_C@_1M@IGMJCDLA@?$AAe?$AAn?$AA?9?$AAc?$AAb?$AA?$AA@ 00000001800178c8     LIBCMT:winapinls.obj
 0002:000058d8       ??_C@_1M@BNFIGBKG@?$AAe?$AAn?$AA?9?$AAg?$AAb?$AA?$AA@ 00000001800178d8     LIBCMT:winapinls.obj
 0002:000058e8       ??_C@_1M@LKIFDIGP@?$AAe?$AAn?$AA?9?$AAi?$AAe?$AA?$AA@ 00000001800178e8     LIBCMT:winapinls.obj
 0002:000058f8       ??_C@_1M@PJKFGCCO@?$AAe?$AAn?$AA?9?$AAj?$AAm?$AA?$AA@ 00000001800178f8     LIBCMT:winapinls.obj
 0002:00005908       ??_C@_1M@KPPKEPBO@?$AAe?$AAn?$AA?9?$AAn?$AAz?$AA?$AA@ 0000000180017908     LIBCMT:winapinls.obj
 0002:00005918       ??_C@_1M@GMDGLDOB@?$AAe?$AAn?$AA?9?$AAp?$AAh?$AA?$AA@ 0000000180017918     LIBCMT:winapinls.obj
 0002:00005928       ??_C@_1M@ONGIBJNA@?$AAe?$AAn?$AA?9?$AAt?$AAt?$AA?$AA@ 0000000180017928     LIBCMT:winapinls.obj
 0002:00005938       ??_C@_1M@LLODPCMM@?$AAe?$AAn?$AA?9?$AAu?$AAs?$AA?$AA@ 0000000180017938     LIBCMT:winapinls.obj
 0002:00005948       ??_C@_1M@LAKFNPAN@?$AAe?$AAn?$AA?9?$AAz?$AAa?$AA?$AA@ 0000000180017948     LIBCMT:winapinls.obj
 0002:00005958       ??_C@_1M@MFNHNHEO@?$AAe?$AAn?$AA?9?$AAz?$AAw?$AA?$AA@ 0000000180017958     LIBCMT:winapinls.obj
 0002:00005968       ??_C@_1M@EJEINPHM@?$AAe?$AAs?$AA?9?$AAa?$AAr?$AA?$AA@ 0000000180017968     LIBCMT:winapinls.obj
 0002:00005978       ??_C@_1M@GNKPCCJA@?$AAe?$AAs?$AA?9?$AAb?$AAo?$AA?$AA@ 0000000180017978     LIBCMT:winapinls.obj
 0002:00005988       ??_C@_1M@LEEGFONL@?$AAe?$AAs?$AA?9?$AAc?$AAl?$AA?$AA@ 0000000180017988     LIBCMT:winapinls.obj
 0002:00005998       ??_C@_1M@KGPDPBDF@?$AAe?$AAs?$AA?9?$AAc?$AAo?$AA?$AA@ 0000000180017998     LIBCMT:winapinls.obj
 0002:000059a8       ??_C@_1M@EIAHOHH@?$AAe?$AAs?$AA?9?$AAc?$AAr?$AA?$AA@ 00000001800179a8     LIBCMT:winapinls.obj
 0002:000059b8       ??_C@_1M@LLPGMBIN@?$AAe?$AAs?$AA?9?$AAd?$AAo?$AA?$AA@ 00000001800179b8     LIBCMT:winapinls.obj
 0002:000059c8       ??_C@_1M@DKHMKNJA@?$AAe?$AAs?$AA?9?$AAe?$AAc?$AA?$AA@ 00000001800179c8     LIBCMT:winapinls.obj
 0002:000059d8       ??_C@_1M@GKGFPKAP@?$AAe?$AAs?$AA?9?$AAe?$AAs?$AA?$AA@ 00000001800179d8     LIBCMT:winapinls.obj
 0002:000059e8       ??_C@_1M@LKHKGDLN@?$AAe?$AAs?$AA?9?$AAg?$AAt?$AA?$AA@ 00000001800179e8     LIBCMT:winapinls.obj
 0002:000059f8       ??_C@_1M@HEIIGGJD@?$AAe?$AAs?$AA?9?$AAh?$AAn?$AA?$AA@ 00000001800179f8     LIBCMT:winapinls.obj
 0002:00005a08       ??_C@_1M@FBDHPPGD@?$AAe?$AAs?$AA?9?$AAm?$AAx?$AA?$AA@ 0000000180017a08     LIBCMT:winapinls.obj
 0002:00005a18       ??_C@_1M@DPAGLNDH@?$AAe?$AAs?$AA?9?$AAn?$AAi?$AA?$AA@ 0000000180017a18     LIBCMT:winapinls.obj
 0002:00005a28       ??_C@_1M@MDGOPGDD@?$AAe?$AAs?$AA?9?$AAp?$AAa?$AA?$AA@ 0000000180017a28     LIBCMT:winapinls.obj
 0002:00005a38       ??_C@_1M@EMAMGBGE@?$AAe?$AAs?$AA?9?$AAp?$AAe?$AA?$AA@ 0000000180017a38     LIBCMT:winapinls.obj
 0002:00005a48       ??_C@_1M@IBMCAOEC@?$AAe?$AAs?$AA?9?$AAp?$AAr?$AA?$AA@ 0000000180017a48     LIBCMT:winapinls.obj
 0002:00005a58       ??_C@_1M@FGMDIJED@?$AAe?$AAs?$AA?9?$AAp?$AAy?$AA?$AA@ 0000000180017a58     LIBCMT:winapinls.obj
 0002:00005a68       ??_C@_1M@IIDEOLLL@?$AAe?$AAs?$AA?9?$AAs?$AAv?$AA?$AA@ 0000000180017a68     LIBCMT:winapinls.obj
 0002:00005a78       ??_C@_1M@GAOBIPA@?$AAe?$AAs?$AA?9?$AAu?$AAy?$AA?$AA@ 0000000180017a78     LIBCMT:winapinls.obj
 0002:00005a88       ??_C@_1M@JKFFICHJ@?$AAe?$AAs?$AA?9?$AAv?$AAe?$AA?$AA@ 0000000180017a88     LIBCMT:winapinls.obj
 0002:00005a98       ??_C@_1M@PNMLOJDF@?$AAe?$AAt?$AA?9?$AAe?$AAe?$AA?$AA@ 0000000180017a98     LIBCMT:winapinls.obj
 0002:00005aa8       ??_C@_1M@GHHLIKEI@?$AAe?$AAu?$AA?9?$AAe?$AAs?$AA?$AA@ 0000000180017aa8     LIBCMT:winapinls.obj
 0002:00005ab8       ??_C@_1M@PBNONODE@?$AAf?$AAa?$AA?9?$AAi?$AAr?$AA?$AA@ 0000000180017ab8     LIBCMT:winapinls.obj
 0002:00005ac8       ??_C@_1M@JEEHPMIL@?$AAf?$AAi?$AA?9?$AAf?$AAi?$AA?$AA@ 0000000180017ac8     LIBCMT:winapinls.obj
 0002:00005ad8       ??_C@_1M@LMDCNDBA@?$AAf?$AAo?$AA?9?$AAf?$AAo?$AA?$AA@ 0000000180017ad8     LIBCMT:winapinls.obj
 0002:00005ae8       ??_C@_1M@JKEOHLDK@?$AAf?$AAr?$AA?9?$AAb?$AAe?$AA?$AA@ 0000000180017ae8     LIBCMT:winapinls.obj
 0002:00005af8       ??_C@_1M@NOHADPMI@?$AAf?$AAr?$AA?9?$AAc?$AAa?$AA?$AA@ 0000000180017af8     LIBCMT:winapinls.obj
 0002:00005b08       ??_C@_1M@KDHIHAEC@?$AAf?$AAr?$AA?9?$AAc?$AAh?$AA?$AA@ 0000000180017b08     LIBCMT:winapinls.obj
 0002:00005b18       ??_C@_1M@MMBBFGAK@?$AAf?$AAr?$AA?9?$AAf?$AAr?$AA?$AA@ 0000000180017b18     LIBCMT:winapinls.obj
 0002:00005b28       ??_C@_1M@PAFNENNF@?$AAf?$AAr?$AA?9?$AAl?$AAu?$AA?$AA@ 0000000180017b28     LIBCMT:winapinls.obj
 0002:00005b38       ??_C@_1M@EOHDJGDD@?$AAf?$AAr?$AA?9?$AAm?$AAc?$AA?$AA@ 0000000180017b38     LIBCMT:winapinls.obj
 0002:00005b48       ??_C@_1M@FAPLLOPF@?$AAg?$AAl?$AA?9?$AAe?$AAs?$AA?$AA@ 0000000180017b48     LIBCMT:winapinls.obj
 0002:00005b58       ??_C@_1M@FOPBFLOO@?$AAg?$AAu?$AA?9?$AAi?$AAn?$AA?$AA@ 0000000180017b58     LIBCMT:winapinls.obj
 0002:00005b68       ??_C@_1M@KBMCINPM@?$AAh?$AAe?$AA?9?$AAi?$AAl?$AA?$AA@ 0000000180017b68     LIBCMT:winapinls.obj
 0002:00005b78       ??_C@_1M@BBPHKFPJ@?$AAh?$AAi?$AA?9?$AAi?$AAn?$AA?$AA@ 0000000180017b78     LIBCMT:winapinls.obj
 0002:00005b88       ??_C@_1M@PMBNDPHD@?$AAh?$AAr?$AA?9?$AAb?$AAa?$AA?$AA@ 0000000180017b88     LIBCMT:winapinls.obj
 0002:00005b98       ??_C@_1M@BPCKOEGE@?$AAh?$AAr?$AA?9?$AAh?$AAr?$AA?$AA@ 0000000180017b98     LIBCMT:winapinls.obj
 0002:00005ba8       ??_C@_1M@GACBMHKE@?$AAh?$AAu?$AA?9?$AAh?$AAu?$AA?$AA@ 0000000180017ba8     LIBCMT:winapinls.obj
 0002:00005bb8       ??_C@_1M@MILPAJJC@?$AAh?$AAy?$AA?9?$AAa?$AAm?$AA?$AA@ 0000000180017bb8     LIBCMT:winapinls.obj
 0002:00005bc8       ??_C@_1M@BABBICEC@?$AAi?$AAd?$AA?9?$AAi?$AAd?$AA?$AA@ 0000000180017bc8     LIBCMT:winapinls.obj
 0002:00005bd8       ??_C@_1M@BIKNHHPF@?$AAi?$AAs?$AA?9?$AAi?$AAs?$AA?$AA@ 0000000180017bd8     LIBCMT:winapinls.obj
 0002:00005be8       ??_C@_1M@NMPCJPHE@?$AAi?$AAt?$AA?9?$AAc?$AAh?$AA?$AA@ 0000000180017be8     LIBCMT:winapinls.obj
 0002:00005bf8       ??_C@_1M@GHKGFEDF@?$AAi?$AAt?$AA?9?$AAi?$AAt?$AA?$AA@ 0000000180017bf8     LIBCMT:winapinls.obj
 0002:00005c08       ??_C@_1M@NIEJCJJA@?$AAj?$AAa?$AA?9?$AAj?$AAp?$AA?$AA@ 0000000180017c08     LIBCMT:winapinls.obj
 0002:00005c18       ??_C@_1M@JILFNBIM@?$AAk?$AAa?$AA?9?$AAg?$AAe?$AA?$AA@ 0000000180017c18     LIBCMT:winapinls.obj
 0002:00005c28       ??_C@_1M@PACPMGPH@?$AAk?$AAk?$AA?9?$AAk?$AAz?$AA?$AA@ 0000000180017c28     LIBCMT:winapinls.obj
 0002:00005c38       ??_C@_1M@IELFGMHA@?$AAk?$AAn?$AA?9?$AAi?$AAn?$AA?$AA@ 0000000180017c38     LIBCMT:winapinls.obj
 0002:00005c48       ??_C@_1O@IBBJHCH@?$AAk?$AAo?$AAk?$AA?9?$AAi?$AAn?$AA?$AA@ 0000000180017c48     LIBCMT:winapinls.obj
 0002:00005c58       ??_C@_1M@DMHAEOGC@?$AAk?$AAo?$AA?9?$AAk?$AAr?$AA?$AA@ 0000000180017c58     LIBCMT:winapinls.obj
 0002:00005c68       ??_C@_1M@HBAHBIGA@?$AAk?$AAy?$AA?9?$AAk?$AAg?$AA?$AA@ 0000000180017c68     LIBCMT:winapinls.obj
 0002:00005c78       ??_C@_1M@KPMILCJG@?$AAl?$AAt?$AA?9?$AAl?$AAt?$AA?$AA@ 0000000180017c78     LIBCMT:winapinls.obj
 0002:00005c88       ??_C@_1M@BDEKKCA@?$AAl?$AAv?$AA?9?$AAl?$AAv?$AA?$AA@ 0000000180017c88     LIBCMT:winapinls.obj
 0002:00005c98       ??_C@_1M@ELCKCCJJ@?$AAm?$AAi?$AA?9?$AAn?$AAz?$AA?$AA@ 0000000180017c98     LIBCMT:winapinls.obj
 0002:00005ca8       ??_C@_1M@CBOOLAPA@?$AAm?$AAk?$AA?9?$AAm?$AAk?$AA?$AA@ 0000000180017ca8     LIBCMT:winapinls.obj
 0002:00005cb8       ??_C@_1M@GPHNBJKN@?$AAm?$AAl?$AA?9?$AAi?$AAn?$AA?$AA@ 0000000180017cb8     LIBCMT:winapinls.obj
 0002:00005cc8       ??_C@_1M@PABJILIG@?$AAm?$AAn?$AA?9?$AAm?$AAn?$AA?$AA@ 0000000180017cc8     LIBCMT:winapinls.obj
 0002:00005cd8       ??_C@_1M@FGBKKIPG@?$AAm?$AAr?$AA?9?$AAi?$AAn?$AA?$AA@ 0000000180017cd8     LIBCMT:winapinls.obj
 0002:00005ce8       ??_C@_1M@NDBPDDAL@?$AAm?$AAs?$AA?9?$AAb?$AAn?$AA?$AA@ 0000000180017ce8     LIBCMT:winapinls.obj
 0002:00005cf8       ??_C@_1M@OPIHOOPI@?$AAm?$AAs?$AA?9?$AAm?$AAy?$AA?$AA@ 0000000180017cf8     LIBCMT:winapinls.obj
 0002:00005d08       ??_C@_1M@PPDBCNFM@?$AAm?$AAt?$AA?9?$AAm?$AAt?$AA?$AA@ 0000000180017d08     LIBCMT:winapinls.obj
 0002:00005d18       ??_C@_1M@KDJDKMDD@?$AAn?$AAb?$AA?9?$AAn?$AAo?$AA?$AA@ 0000000180017d18     LIBCMT:winapinls.obj
 0002:00005d28       ??_C@_1M@KFCFLMJP@?$AAn?$AAl?$AA?9?$AAb?$AAe?$AA?$AA@ 0000000180017d28     LIBCMT:winapinls.obj
 0002:00005d38       ??_C@_1M@KPOPDDGO@?$AAn?$AAl?$AA?9?$AAn?$AAl?$AA?$AA@ 0000000180017d38     LIBCMT:winapinls.obj
 0002:00005d48       ??_C@_1M@LJKPEMLN@?$AAn?$AAn?$AA?9?$AAn?$AAo?$AA?$AA@ 0000000180017d48     LIBCMT:winapinls.obj
 0002:00005d58       ??_C@_1M@BDGHHBFL@?$AAn?$AAs?$AA?9?$AAz?$AAa?$AA?$AA@ 0000000180017d58     LIBCMT:winapinls.obj
 0002:00005d68       ??_C@_1M@IDEHOAP@?$AAp?$AAa?$AA?9?$AAi?$AAn?$AA?$AA@ 0000000180017d68     LIBCMT:winapinls.obj
 0002:00005d78       ??_C@_1M@HDBKGOGH@?$AAp?$AAl?$AA?9?$AAp?$AAl?$AA?$AA@ 0000000180017d78     LIBCMT:winapinls.obj
 0002:00005d88       ??_C@_1M@LJLLCMEH@?$AAp?$AAt?$AA?9?$AAb?$AAr?$AA?$AA@ 0000000180017d88     LIBCMT:winapinls.obj
 0002:00005d98       ??_C@_1M@NCMONAAL@?$AAp?$AAt?$AA?9?$AAp?$AAt?$AA?$AA@ 0000000180017d98     LIBCMT:winapinls.obj
 0002:00005da8       ??_C@_1O@EAKMAJDN@?$AAq?$AAu?$AAz?$AA?9?$AAb?$AAo?$AA?$AA@ 0000000180017da8     LIBCMT:winapinls.obj
 0002:00005db8       ??_C@_1O@BHHPIGDN@?$AAq?$AAu?$AAz?$AA?9?$AAe?$AAc?$AA?$AA@ 0000000180017db8     LIBCMT:winapinls.obj
 0002:00005dc8       ??_C@_1O@GBAPEKMJ@?$AAq?$AAu?$AAz?$AA?9?$AAp?$AAe?$AA?$AA@ 0000000180017dc8     LIBCMT:winapinls.obj
 0002:00005dd8       ??_C@_1M@CLGLEFBO@?$AAr?$AAo?$AA?9?$AAr?$AAo?$AA?$AA@ 0000000180017dd8     LIBCMT:winapinls.obj
 0002:00005de8       ??_C@_1M@CEEDODME@?$AAr?$AAu?$AA?9?$AAr?$AAu?$AA?$AA@ 0000000180017de8     LIBCMT:winapinls.obj
 0002:00005df8       ??_C@_1M@HPKKKMPP@?$AAs?$AAa?$AA?9?$AAi?$AAn?$AA?$AA@ 0000000180017df8     LIBCMT:winapinls.obj
 0002:00005e08       ??_C@_1M@BKMAIGOJ@?$AAs?$AAe?$AA?9?$AAf?$AAi?$AA?$AA@ 0000000180017e08     LIBCMT:winapinls.obj
 0002:00005e18       ??_C@_1M@NDPIFLFI@?$AAs?$AAe?$AA?9?$AAn?$AAo?$AA?$AA@ 0000000180017e18     LIBCMT:winapinls.obj
 0002:00005e28       ??_C@_1M@DANKKHJ@?$AAs?$AAe?$AA?9?$AAs?$AAe?$AA?$AA@ 0000000180017e28     LIBCMT:winapinls.obj
 0002:00005e38       ??_C@_1M@PNBLONPJ@?$AAs?$AAk?$AA?9?$AAs?$AAk?$AA?$AA@ 0000000180017e38     LIBCMT:winapinls.obj
 0002:00005e48       ??_C@_1M@LFMODOAL@?$AAs?$AAl?$AA?9?$AAs?$AAi?$AA?$AA@ 0000000180017e48     LIBCMT:winapinls.obj
 0002:00005e58       ??_C@_1O@DFKOMPG@?$AAs?$AAm?$AAa?$AA?9?$AAn?$AAo?$AA?$AA@ 0000000180017e58     LIBCMT:winapinls.obj
 0002:00005e68       ??_C@_1O@NDKPBNNH@?$AAs?$AAm?$AAa?$AA?9?$AAs?$AAe?$AA?$AA@ 0000000180017e68     LIBCMT:winapinls.obj
 0002:00005e78       ??_C@_1O@PLLKBHAB@?$AAs?$AAm?$AAj?$AA?9?$AAn?$AAo?$AA?$AA@ 0000000180017e78     LIBCMT:winapinls.obj
 0002:00005e88       ??_C@_1O@CLEPOGCA@?$AAs?$AAm?$AAj?$AA?9?$AAs?$AAe?$AA?$AA@ 0000000180017e88     LIBCMT:winapinls.obj
 0002:00005e98       ??_C@_1O@DLGJGKMK@?$AAs?$AAm?$AAn?$AA?9?$AAf?$AAi?$AA?$AA@ 0000000180017e98     LIBCMT:winapinls.obj
 0002:00005ea8       ??_C@_1O@OJDJGAJC@?$AAs?$AAm?$AAs?$AA?9?$AAf?$AAi?$AA?$AA@ 0000000180017ea8     LIBCMT:winapinls.obj
 0002:00005eb8       ??_C@_1M@BOFOGHPB@?$AAs?$AAq?$AA?9?$AAa?$AAl?$AA?$AA@ 0000000180017eb8     LIBCMT:winapinls.obj
 0002:00005ec8       ??_C@_1BG@LJBBIPGB@?$AAs?$AAr?$AA?9?$AAb?$AAa?$AA?9?$AAc?$AAy?$AAr?$AAl?$AA?$AA@ 0000000180017ec8     LIBCMT:winapinls.obj
 0002:00005ee0       ??_C@_1BG@JLBENFOE@?$AAs?$AAr?$AA?9?$AAb?$AAa?$AA?9?$AAl?$AAa?$AAt?$AAn?$AA?$AA@ 0000000180017ee0     LIBCMT:winapinls.obj
 0002:00005ef8       ??_C@_1BG@KODPNHE@?$AAs?$AAr?$AA?9?$AAs?$AAp?$AA?9?$AAc?$AAy?$AAr?$AAl?$AA?$AA@ 0000000180017ef8     LIBCMT:winapinls.obj
 0002:00005f10       ??_C@_1BG@CIOGKHPB@?$AAs?$AAr?$AA?9?$AAs?$AAp?$AA?9?$AAl?$AAa?$AAt?$AAn?$AA?$AA@ 0000000180017f10     LIBCMT:winapinls.obj
 0002:00005f28       ??_C@_1M@NGFJLMAC@?$AAs?$AAv?$AA?9?$AAf?$AAi?$AA?$AA@ 0000000180017f28     LIBCMT:winapinls.obj
 0002:00005f38       ??_C@_1M@MPJEJAJC@?$AAs?$AAv?$AA?9?$AAs?$AAe?$AA?$AA@ 0000000180017f38     LIBCMT:winapinls.obj
 0002:00005f48       ??_C@_1M@MPNDHLFK@?$AAs?$AAw?$AA?9?$AAk?$AAe?$AA?$AA@ 0000000180017f48     LIBCMT:winapinls.obj
 0002:00005f58       ??_C@_1O@KOHBJJI@?$AAs?$AAy?$AAr?$AA?9?$AAs?$AAy?$AA?$AA@ 0000000180017f58     LIBCMT:winapinls.obj
 0002:00005f68       ??_C@_1M@LDCEFHA@?$AAt?$AAa?$AA?9?$AAi?$AAn?$AA?$AA@ 0000000180017f68     LIBCMT:winapinls.obj
 0002:00005f78       ??_C@_1M@CNJOFAK@?$AAt?$AAe?$AA?9?$AAi?$AAn?$AA?$AA@ 0000000180017f78     LIBCMT:winapinls.obj
 0002:00005f88       ??_C@_1M@GNAECACD@?$AAt?$AAh?$AA?9?$AAt?$AAh?$AA?$AA@ 0000000180017f88     LIBCMT:winapinls.obj
 0002:00005f98       ??_C@_1M@CHBIHOJO@?$AAt?$AAn?$AA?9?$AAz?$AAa?$AA?$AA@ 0000000180017f98     LIBCMT:winapinls.obj
 0002:00005fa8       ??_C@_1M@GCCMIGPJ@?$AAt?$AAr?$AA?9?$AAt?$AAr?$AA?$AA@ 0000000180017fa8     LIBCMT:winapinls.obj
 0002:00005fb8       ??_C@_1M@CELMCNBK@?$AAt?$AAt?$AA?9?$AAr?$AAu?$AA?$AA@ 0000000180017fb8     LIBCMT:winapinls.obj
 0002:00005fc8       ??_C@_1M@KLMCELGA@?$AAu?$AAk?$AA?9?$AAu?$AAa?$AA?$AA@ 0000000180017fc8     LIBCMT:winapinls.obj
 0002:00005fd8       ??_C@_1M@EPAJJAJF@?$AAu?$AAr?$AA?9?$AAp?$AAk?$AA?$AA@ 0000000180017fd8     LIBCMT:winapinls.obj
 0002:00005fe8       ??_C@_1BG@GEGPMCDJ@?$AAu?$AAz?$AA?9?$AAu?$AAz?$AA?9?$AAc?$AAy?$AAr?$AAl?$AA?$AA@ 0000000180017fe8     LIBCMT:winapinls.obj
 0002:00006000       ??_C@_1BG@EGGKJILM@?$AAu?$AAz?$AA?9?$AAu?$AAz?$AA?9?$AAl?$AAa?$AAt?$AAn?$AA?$AA@ 0000000180018000     LIBCMT:winapinls.obj
 0002:00006018       ??_C@_1M@GFOCLFF@?$AAv?$AAi?$AA?9?$AAv?$AAn?$AA?$AA@ 0000000180018018     LIBCMT:winapinls.obj
 0002:00006028       ??_C@_1M@CPAMEDFI@?$AAx?$AAh?$AA?9?$AAz?$AAa?$AA?$AA@ 0000000180018028     LIBCMT:winapinls.obj
 0002:00006038       ??_C@_1O@EBKIFIGN@?$AAz?$AAh?$AA?9?$AAc?$AAh?$AAs?$AA?$AA@ 0000000180018038     LIBCMT:winapinls.obj
 0002:00006048       ??_C@_1O@NMHPGANE@?$AAz?$AAh?$AA?9?$AAc?$AAh?$AAt?$AA?$AA@ 0000000180018048     LIBCMT:winapinls.obj
 0002:00006058       ??_C@_1M@LPINJOMC@?$AAz?$AAh?$AA?9?$AAc?$AAn?$AA?$AA@ 0000000180018058     LIBCMT:winapinls.obj
 0002:00006068       ??_C@_1M@OCJEJODD@?$AAz?$AAh?$AA?9?$AAh?$AAk?$AA?$AA@ 0000000180018068     LIBCMT:winapinls.obj
 0002:00006078       ??_C@_1M@DNDLJINH@?$AAz?$AAh?$AA?9?$AAm?$AAo?$AA?$AA@ 0000000180018078     LIBCMT:winapinls.obj
 0002:00006088       ??_C@_1M@MBFDNDND@?$AAz?$AAh?$AA?9?$AAs?$AAg?$AA?$AA@ 0000000180018088     LIBCMT:winapinls.obj
 0002:00006098       ??_C@_1M@IMEPLEPE@?$AAz?$AAh?$AA?9?$AAt?$AAw?$AA?$AA@ 0000000180018098     LIBCMT:winapinls.obj
 0002:000060a8       ??_C@_1M@BBGHNHJP@?$AAz?$AAu?$AA?9?$AAz?$AAa?$AA?$AA@ 00000001800180a8     LIBCMT:winapinls.obj
 0002:000060d0       ??_C@_03KHJOGHMM@exp?$AA@  00000001800180d0     LIBCMT:fpexcept.obj
 0002:000060d4       ??_C@_03JGHBODFD@pow?$AA@  00000001800180d4     LIBCMT:fpexcept.obj
 0002:000060d8       ??_C@_03MGHMBJCF@log?$AA@  00000001800180d8     LIBCMT:fpexcept.obj
 0002:000060dc       ??_C@_05HGHHAHAP@log10?$AA@ 00000001800180dc     LIBCMT:fpexcept.obj
 0002:000060e4       ??_C@_04COOMCNPB@sinh?$AA@ 00000001800180e4     LIBCMT:fpexcept.obj
 0002:000060ec       ??_C@_04HPJJNFIM@cosh?$AA@ 00000001800180ec     LIBCMT:fpexcept.obj
 0002:000060f4       ??_C@_04FJHINJAO@tanh?$AA@ 00000001800180f4     LIBCMT:fpexcept.obj
 0002:000060fc       ??_C@_04FIHNOPOL@asin?$AA@ 00000001800180fc     LIBCMT:fpexcept.obj
 0002:00006104       ??_C@_04PDIFKINK@acos?$AA@ 0000000180018104     LIBCMT:fpexcept.obj
 0002:0000610c       ??_C@_04MLLJIGOK@atan?$AA@ 000000018001810c     LIBCMT:fpexcept.obj
 0002:00006114       ??_C@_05KNGEOGJB@atan2?$AA@ 0000000180018114     LIBCMT:fpexcept.obj
 0002:0000611c       ??_C@_04EIAKFFMI@sqrt?$AA@ 000000018001811c     LIBCMT:fpexcept.obj
 0002:00006124       ??_C@_03BLEJJJBH@sin?$AA@  0000000180018124     LIBCMT:fpexcept.obj
 0002:00006128       ??_C@_03LALBNOCG@cos?$AA@  0000000180018128     LIBCMT:fpexcept.obj
 0002:0000612c       ??_C@_03IIINPABG@tan?$AA@  000000018001812c     LIBCMT:fpexcept.obj
 0002:00006130       ??_C@_04GFPJNGEK@ceil?$AA@ 0000000180018130     LIBCMT:fpexcept.obj
 0002:00006138       ??_C@_05PBJFFIGL@floor?$AA@ 0000000180018138     LIBCMT:fpexcept.obj
 0002:00006140       ??_C@_04ODHECPBC@fabs?$AA@ 0000000180018140     LIBCMT:fpexcept.obj
 0002:00006148       ??_C@_04EHEDPDJG@modf?$AA@ 0000000180018148     LIBCMT:fpexcept.obj
 0002:00006150       ??_C@_05CEJMAHNP@ldexp?$AA@ 0000000180018150     LIBCMT:fpexcept.obj
 0002:00006158       ??_C@_05KBKMEMPO@_cabs?$AA@ 0000000180018158     LIBCMT:fpexcept.obj
 0002:00006160       ??_C@_04KEPJIHGP@fmod?$AA@ 0000000180018160     LIBCMT:fpexcept.obj
 0002:00006168       ??_C@_05GKKHEGJL@frexp?$AA@ 0000000180018168     LIBCMT:fpexcept.obj
 0002:00006170       ??_C@_03MJLDFKDL@_y0?$AA@  0000000180018170     LIBCMT:fpexcept.obj
 0002:00006174       ??_C@_03NAKIGLHK@_y1?$AA@  0000000180018174     LIBCMT:fpexcept.obj
 0002:00006178       ??_C@_03ONILCKOB@_yn?$AA@  0000000180018178     LIBCMT:fpexcept.obj
 0002:0000617c       ??_C@_05JGDBENOH@_logb?$AA@ 000000018001817c     LIBCMT:fpexcept.obj
 0002:00006188       ??_C@_0L@KDOEJCKC@_nextafter?$AA@ 0000000180018188     LIBCMT:fpexcept.obj
 0002:000061a0       __newctype                 00000001800181a0     LIBCMT:ctype.obj
 0002:000064a0       _wctype                    00000001800184a0     LIBCMT:ctype.obj
 0002:000066b0       __newclmap                 00000001800186b0     LIBCMT:ctype.obj
 0002:00006830       __newcumap                 0000000180018830     LIBCMT:ctype.obj
 0002:000069b0       __rg_language_count        00000001800189b0     LIBCMT:getqloc.obj
 0002:000069b4       __rg_country_count         00000001800189b4     LIBCMT:getqloc.obj
 0002:00006cd8       ??_C@_08EHJDFFNH@__based?$CI?$AA@ 0000000180018cd8     LIBCMT:undname.obj
 0002:00006ce8       ??_C@_07KOLFKCDI@__cdecl?$AA@ 0000000180018ce8     LIBCMT:undname.obj
 0002:00006cf0       ??_C@_08GHMPAG@__pascal?$AA@ 0000000180018cf0     LIBCMT:undname.obj
 0002:00006d00       ??_C@_09IFJBGAPI@__stdcall?$AA@ 0000000180018d00     LIBCMT:undname.obj
 0002:00006d10       ??_C@_0L@NPHFGOKO@__thiscall?$AA@ 0000000180018d10     LIBCMT:undname.obj
 0002:00006d20       ??_C@_0L@JMKHOMEK@__fastcall?$AA@ 0000000180018d20     LIBCMT:undname.obj
 0002:00006d30       ??_C@_0N@BCKKPABJ@__vectorcall?$AA@ 0000000180018d30     LIBCMT:undname.obj
 0002:00006d40       ??_C@_09HIJEGCPM@__clrcall?$AA@ 0000000180018d40     LIBCMT:undname.obj
 0002:00006d4c       ??_C@_06GHPCKEAG@__eabi?$AA@ 0000000180018d4c     LIBCMT:undname.obj
 0002:00006d58       ??_C@_07JOMMBBKO@__ptr64?$AA@ 0000000180018d58     LIBCMT:undname.obj
 0002:00006d60       ??_C@_0L@PILCLIHE@__restrict?$AA@ 0000000180018d60     LIBCMT:undname.obj
 0002:00006d70       ??_C@_0M@GFIIJFMG@__unaligned?$AA@ 0000000180018d70     LIBCMT:undname.obj
 0002:00006d80       ??_C@_09DHDLOLLB@restrict?$CI?$AA@ 0000000180018d80     LIBCMT:undname.obj
 0002:00006d8a       ??_C@_00CNPNBAHC@?$AA@     0000000180018d8a     LIBCMT:undname.obj
 0002:00006d8c       ??_C@_04NIHEBCM@?5new?$AA@ 0000000180018d8c     LIBCMT:undname.obj
 0002:00006d98       ??_C@_07FPCDHGMM@?5delete?$AA@ 0000000180018d98     LIBCMT:undname.obj
 0002:00006da0       ??_C@_01NEMOKFLO@?$DN?$AA@ 0000000180018da0     LIBCMT:undname.obj
 0002:00006da4       ??_C@_02GPIOPFAK@?$DO?$DO?$AA@ 0000000180018da4     LIBCMT:undname.obj
 0002:00006da8       ??_C@_02FODMEDOG@?$DM?$DM?$AA@ 0000000180018da8     LIBCMT:undname.obj
 0002:00006dac       ??_C@_01DCLJPIOD@?$CB?$AA@ 0000000180018dac     LIBCMT:undname.obj
 0002:00006db0       ??_C@_02EGOFBIJA@?$DN?$DN?$AA@ 0000000180018db0     LIBCMT:undname.obj
 0002:00006db4       ??_C@_02FDNJECIE@?$CB?$DN?$AA@ 0000000180018db4     LIBCMT:undname.obj
 0002:00006db8       ??_C@_02GPECMEKF@?$FL?$FN?$AA@ 0000000180018db8     LIBCMT:undname.obj
 0002:00006dc0       ??_C@_08LHJFAFGD@operator?$AA@ 0000000180018dc0     LIBCMT:undname.obj
 0002:00006dcc       ??_C@_02HBOOOICD@?9?$DO?$AA@ 0000000180018dcc     LIBCMT:undname.obj
 0002:00006dd0       ??_C@_01NBENCBCI@?$CK?$AA@ 0000000180018dd0     LIBCMT:undname.obj
 0002:00006dd4       ??_C@_02ECNGHCIF@?$CL?$CL?$AA@ 0000000180018dd4     LIBCMT:undname.obj
 0002:00006dd8       ??_C@_02BAABKJLB@?9?9?$AA@ 0000000180018dd8     LIBCMT:undname.obj
 0002:00006ddc       ??_C@_01JOAMLHOP@?9?$AA@   0000000180018ddc     LIBCMT:undname.obj
 0002:00006de0       ??_C@_01MIFGBAGJ@?$CL?$AA@ 0000000180018de0     LIBCMT:undname.obj
 0002:00006de4       ??_C@_01HNPIGOCE@?$CG?$AA@ 0000000180018de4     LIBCMT:undname.obj
 0002:00006de8       ??_C@_03MNHNFDLC@?9?$DO?$CK?$AA@ 0000000180018de8     LIBCMT:undname.obj
 0002:00006dec       ??_C@_01KMDKNFGN@?1?$AA@   0000000180018dec     LIBCMT:undname.obj
 0002:00006df0       ??_C@_01FGNFDNOH@?$CF?$AA@ 0000000180018df0     LIBCMT:undname.obj
 0002:00006df4       ??_C@_01MNNFJEPP@?$DM?$AA@ 0000000180018df4     LIBCMT:undname.obj
 0002:00006df8       ??_C@_02EHCHHCKH@?$DM?$DN?$AA@ 0000000180018df8     LIBCMT:undname.obj
 0002:00006dfc       ??_C@_01PPODPGHN@?$DO?$AA@ 0000000180018dfc     LIBCMT:undname.obj
 0002:00006e00       ??_C@_02EEKDKGMJ@?$DO?$DN?$AA@ 0000000180018e00     LIBCMT:undname.obj
 0002:00006e04       ??_C@_01IHBHIGKO@?0?$AA@   0000000180018e04     LIBCMT:undname.obj
 0002:00006e08       ??_C@_02HCKGKOFO@?$CI?$CJ?$AA@ 0000000180018e08     LIBCMT:undname.obj
 0002:00006e0c       ??_C@_01PJKLJHI@?$HO?$AA@  0000000180018e0c     LIBCMT:undname.obj
 0002:00006e10       ??_C@_01JKBOJNNK@?$FO?$AA@ 0000000180018e10     LIBCMT:undname.obj
 0002:00006e14       ??_C@_01DNKMNLPK@?$HM?$AA@ 0000000180018e14     LIBCMT:undname.obj
 0002:00006e18       ??_C@_02PPKAJPJL@?$CG?$CG?$AA@ 0000000180018e18     LIBCMT:undname.obj
 0002:00006e1c       ??_C@_02NONPIBCD@?$HM?$HM?$AA@ 0000000180018e1c     LIBCMT:undname.obj
 0002:00006e20       ??_C@_02FPIMKNGF@?$CK?$DN?$AA@ 0000000180018e20     LIBCMT:undname.obj
 0002:00006e24       ??_C@_02FOEOMHFC@?$CL?$DN?$AA@ 0000000180018e24     LIBCMT:undname.obj
 0002:00006e28       ??_C@_02FKMDLLOA@?9?$DN?$AA@ 0000000180018e28     LIBCMT:undname.obj
 0002:00006e2c       ??_C@_02FJEHGPIO@?1?$DN?$AA@ 0000000180018e2c     LIBCMT:undname.obj
 0002:00006e30       ??_C@_02FENAOKFI@?$CF?$DN?$AA@ 0000000180018e30     LIBCMT:undname.obj
 0002:00006e34       ??_C@_03IKFCCPFF@?$DO?$DO?$DN?$AA@ 0000000180018e34     LIBCMT:undname.obj
 0002:00006e38       ??_C@_03CDNPDDLA@?$DM?$DM?$DN?$AA@ 0000000180018e38     LIBCMT:undname.obj
 0002:00006e3c       ??_C@_02FGJGFEAB@?$CG?$DN?$AA@ 0000000180018e3c     LIBCMT:undname.obj
 0002:00006e40       ??_C@_02DHLNPPGH@?$HM?$DN?$AA@ 0000000180018e40     LIBCMT:undname.obj
 0002:00006e44       ??_C@_02MHEGNOJ@?$FO?$DN?$AA@ 0000000180018e44     LIBCMT:undname.obj
 0002:00006e48       ??_C@_09IFPLHPGF@?$GAvftable?8?$AA@ 0000000180018e48     LIBCMT:undname.obj
 0002:00006e58       ??_C@_09BLBHBJP@?$GAvbtable?8?$AA@ 0000000180018e58     LIBCMT:undname.obj
 0002:00006e68       ??_C@_07FEEIOKP@?$GAvcall?8?$AA@ 0000000180018e68     LIBCMT:undname.obj
 0002:00006e70       ??_C@_08LLFFHHDJ@?$GAtypeof?8?$AA@ 0000000180018e70     LIBCMT:undname.obj
 0002:00006e80       ??_C@_0BF@KDPPACIK@?$GAlocal?5static?5guard?8?$AA@ 0000000180018e80     LIBCMT:undname.obj
 0002:00006e98       ??_C@_08OBABFOLI@?$GAstring?8?$AA@ 0000000180018e98     LIBCMT:undname.obj
 0002:00006ea8       ??_C@_0BD@JDLKDPAB@?$GAvbase?5destructor?8?$AA@ 0000000180018ea8     LIBCMT:undname.obj
 0002:00006ec0       ??_C@_0BN@DEGPLNFK@?$GAvector?5deleting?5destructor?8?$AA@ 0000000180018ec0     LIBCMT:undname.obj
 0002:00006ee0       ??_C@_0BO@OBMKPJIG@?$GAdefault?5constructor?5closure?8?$AA@ 0000000180018ee0     LIBCMT:undname.obj
 0002:00006f00       ??_C@_0BN@IMDCHIKM@?$GAscalar?5deleting?5destructor?8?$AA@ 0000000180018f00     LIBCMT:undname.obj
 0002:00006f20       ??_C@_0BO@PFGOCPJJ@?$GAvector?5constructor?5iterator?8?$AA@ 0000000180018f20     LIBCMT:undname.obj
 0002:00006f40       ??_C@_0BN@LFPFMEDL@?$GAvector?5destructor?5iterator?8?$AA@ 0000000180018f40     LIBCMT:undname.obj
 0002:00006f60       ??_C@_0CE@IKBNEHA@?$GAvector?5vbase?5constructor?5iterat@ 0000000180018f60     LIBCMT:undname.obj
 0002:00006f88       ??_C@_0BL@NILFHHPC@?$GAvirtual?5displacement?5map?8?$AA@ 0000000180018f88     LIBCMT:undname.obj
 0002:00006fa8       ??_C@_0CB@JONCMFFK@?$GAeh?5vector?5constructor?5iterator?8@ 0000000180018fa8     LIBCMT:undname.obj
 0002:00006fd0       ??_C@_0CA@GCEOPDGL@?$GAeh?5vector?5destructor?5iterator?8?$AA@ 0000000180018fd0     LIBCMT:undname.obj
 0002:00006ff0       ??_C@_0CH@OOJPLCPH@?$GAeh?5vector?5vbase?5constructor?5ite@ 0000000180018ff0     LIBCMT:undname.obj
 0002:00007018       ??_C@_0BL@LLKPOHJI@?$GAcopy?5constructor?5closure?8?$AA@ 0000000180019018     LIBCMT:undname.obj
 0002:00007038       ??_C@_0BA@KBCDOMBN@?$GAudt?5returning?8?$AA@ 0000000180019038     LIBCMT:undname.obj
 0002:00007048       ??_C@_03KLGMFNMG@?$GAEH?$AA@ 0000000180019048     LIBCMT:undname.obj
 0002:0000704c       ??_C@_05KHLCHHI@?$GARTTI?$AA@ 000000018001904c     LIBCMT:undname.obj
 0002:00007058       ??_C@_0BA@KKLDJDLB@?$GAlocal?5vftable?8?$AA@ 0000000180019058     LIBCMT:undname.obj
 0002:00007068       ??_C@_0CE@IIHCMGGL@?$GAlocal?5vftable?5constructor?5closu@ 0000000180019068     LIBCMT:undname.obj
 0002:0000708c       ??_C@_06FHBGPFGH@?5new?$FL?$FN?$AA@ 000000018001908c     LIBCMT:undname.obj
 0002:00007098       ??_C@_09LBNFPBCA@?5delete?$FL?$FN?$AA@ 0000000180019098     LIBCMT:undname.obj
 0002:000070a8       ??_C@_0P@HJKNJFNN@?$GAomni?5callsig?8?$AA@ 00000001800190a8     LIBCMT:undname.obj
 0002:000070b8       ??_C@_0BL@CNOONJFP@?$GAplacement?5delete?5closure?8?$AA@ 00000001800190b8     LIBCMT:undname.obj
 0002:000070d8       ??_C@_0BN@CKNJLHMB@?$GAplacement?5delete?$FL?$FN?5closure?8?$AA@ 00000001800190d8     LIBCMT:undname.obj
 0002:000070f8       ??_C@_0CG@CFDHKGGD@?$GAmanaged?5vector?5constructor?5iter@ 00000001800190f8     LIBCMT:undname.obj
 0002:00007120       ??_C@_0CF@IMGKMJNO@?$GAmanaged?5vector?5destructor?5itera@ 0000000180019120     LIBCMT:undname.obj
 0002:00007148       ??_C@_0CG@HLDDJMAG@?$GAeh?5vector?5copy?5constructor?5iter@ 0000000180019148     LIBCMT:undname.obj
 0002:00007170       ??_C@_0CM@FCBBDIGB@?$GAeh?5vector?5vbase?5copy?5constructo@ 0000000180019170     LIBCMT:undname.obj
 0002:000071a0       ??_C@_0BL@CLIPGLGB@?$GAdynamic?5initializer?5for?5?8?$AA@ 00000001800191a0     LIBCMT:undname.obj
 0002:000071c0       ??_C@_0CB@PDBIFEP@?$GAdynamic?5atexit?5destructor?5for?5?8@ 00000001800191c0     LIBCMT:undname.obj
 0002:000071e8       ??_C@_0CD@CGAJBKEJ@?$GAvector?5copy?5constructor?5iterato@ 00000001800191e8     LIBCMT:undname.obj
 0002:00007210       ??_C@_0CJ@GJELGAMM@?$GAvector?5vbase?5copy?5constructor?5i@ 0000000180019210     LIBCMT:undname.obj
 0002:00007240       ??_C@_0CL@FGIJHLCE@?$GAmanaged?5vector?5copy?5constructor@ 0000000180019240     LIBCMT:undname.obj
 0002:00007270       ??_C@_0BM@PMGGMLDN@?$GAlocal?5static?5thread?5guard?8?$AA@ 0000000180019270     LIBCMT:undname.obj
 0002:00007290       ??_C@_0BC@DAFEJGAK@?5Type?5Descriptor?8?$AA@ 0000000180019290     LIBCMT:undname.obj
 0002:000072a8       ??_C@_0BM@LDKODKLH@?5Base?5Class?5Descriptor?5at?5?$CI?$AA@ 00000001800192a8     LIBCMT:undname.obj
 0002:000072c8       ??_C@_0BD@LGICGFMM@?5Base?5Class?5Array?8?$AA@ 00000001800192c8     LIBCMT:undname.obj
 0002:000072e0       ??_C@_0BN@MECKDCOJ@?5Class?5Hierarchy?5Descriptor?8?$AA@ 00000001800192e0     LIBCMT:undname.obj
 0002:00007300       ??_C@_0BK@CFCOFLF@?5Complete?5Object?5Locator?8?$AA@ 0000000180019300     LIBCMT:undname.obj
 0002:0000731c       ??_C@_06OJHGLDPL@?$CInull?$CJ?$AA@ 000000018001931c     LIBCMT:output.obj
 0002:00007328       ??_C@_1O@CEDCILHN@?$AA?$CI?$AAn?$AAu?$AAl?$AAl?$AA?$CJ?$AA?$AA@ 0000000180019328     LIBCMT:output.obj
 0002:00007340       __lookuptable              0000000180019340     LIBCMT:output.obj
 0002:000073a0       __lookuptable_s            00000001800193a0     LIBCMT:outputs.obj
 0002:000073fc       ??_C@_06PGGFOGJG@1?$CDSNAN?$AA@ 00000001800193fc     LIBCMT:x10fout.obj
 0002:00007404       ??_C@_05PHHOCPM@1?$CDIND?$AA@ 0000000180019404     LIBCMT:x10fout.obj
 0002:0000740c       ??_C@_05DNEBIAHO@1?$CDINF?$AA@ 000000018001940c     LIBCMT:x10fout.obj
 0002:00007414       ??_C@_06IMKFLFPG@1?$CDQNAN?$AA@ 0000000180019414     LIBCMT:x10fout.obj
 0002:00007420       ??_C@_1BA@BALFACEM@?$AAC?$AAO?$AAN?$AAO?$AAU?$AAT?$AA$?$AA?$AA@ 0000000180019420     LIBCMT:initcon.obj
 0002:00007430       ??_C@_0CK@JCPCLECK@external?5memory?5allocation?5limit@ 0000000180019430     bufferutil.obj
 0002:00007460       ??_C@_1IA@NJNCPGOP@?$AAC?$AA?3?$AA?2?$AAU?$AAs?$AAe?$AAr?$AAs?$AA?2?$AAA?$AAd?$AAr?$AAi?$AAa?$AAn?$AA?2?$AA?4?$AAn?$AAo?$AAd?$AAe?$AA?9?$AAg?$AAy?$AAp?$AA?2?$AA5?$AA?4?$AA0?$AA?4?$AA0?$AA?2@ 0000000180019460     bufferutil.obj
 0002:000074e0       ??_C@_1DG@OKCGPKIB@?$AAp?$AAe?$AAr?$AAs?$AAi?$AAs?$AAt?$AAe?$AAn?$AAt?$AA?$CI?$AA?$CJ?$AA?4?$AAI?$AAs?$AAN?$AAe?$AAa?$AAr?$AAD?$AAe?$AAa?$AAt?$AAh?$AA?$CI?$AA?$CJ?$AA?$AA@ 00000001800194e0     bufferutil.obj
 0002:00007518       ??_C@_1CO@EGNPJLKI@?$AAp?$AAe?$AAr?$AAs?$AAi?$AAs?$AAt?$AAe?$AAn?$AAt?$AA?$CI?$AA?$CJ?$AA?4?$AAI?$AAs?$AAE?$AAm?$AAp?$AAt?$AAy?$AA?$CI?$AA?$CJ?$AA?$AA@ 0000000180019518     bufferutil.obj
 0002:00007550       ??_C@_1EC@NOLNIHNJ@?$AAh?$AAa?$AAn?$AAd?$AAl?$AAe?$AA?9?$AA?$DO?$AAI?$AAn?$AAt?$AAe?$AAr?$AAn?$AAa?$AAl?$AAF?$AAi?$AAe?$AAl?$AAd?$AAC?$AAo?$AAu?$AAn?$AAt?$AA?$CI?$AA?$CJ?$AA?5?$AA?$DO?$AA?5?$AA0@ 0000000180019550     bufferutil.obj
 0002:00007598       ??_C@_1DA@FBGAEOIO@?$AA?$CB?$AAp?$AAe?$AAr?$AAs?$AAi?$AAs?$AAt?$AAe?$AAn?$AAt?$AA?$CI?$AA?$CJ?$AA?4?$AAI?$AAs?$AAE?$AAm?$AAp?$AAt?$AAy?$AA?$CI?$AA?$CJ?$AA?$AA@ 0000000180019598     bufferutil.obj
 0002:000075c8       ??_C@_1CO@JCKLEFMA@?$AA?$CB?$AAp?$AAe?$AAr?$AAs?$AAi?$AAs?$AAt?$AAe?$AAn?$AAt?$AA?$CI?$AA?$CJ?$AA?4?$AAI?$AAs?$AAW?$AAe?$AAa?$AAk?$AA?$CI?$AA?$CJ?$AA?$AA@ 00000001800195c8     bufferutil.obj
 0002:000075f8       ??_C@_1BE@GMLLOIPJ@?$AAr?$AAe?$AAf?$AAs?$AA_?$AA?5?$AA?$DO?$AA?5?$AA0?$AA?$AA@ 00000001800195f8     bufferutil.obj
 0002:00007610       ??_C@_1CC@GBFLAAPF@?$AAw?$AAr?$AAa?$AAp?$AA?9?$AA?$DO?$AAr?$AAe?$AAf?$AAs?$AA_?$AA?5?$AA?$DN?$AA?$DN?$AA?5?$AA0?$AA?$AA@ 0000000180019610     bufferutil.obj
 0002:00007638       ??_C@_1DI@ELDBKNAK@?$AAw?$AAr?$AAa?$AAp?$AA?9?$AA?$DO?$AAh?$AAa?$AAn?$AAd?$AAl?$AAe?$AA_?$AA?4?$AAI?$AAs?$AAN?$AAe?$AAa?$AAr?$AAD?$AAe?$AAa?$AAt?$AAh?$AA?$CI?$AA?$CJ?$AA?$AA@ 0000000180019638     bufferutil.obj
 0002:00007670       ??_C@_1IM@GACIBGHJ@?$AAd?$AAa?$AAt?$AAa?$AA?4?$AAG?$AAe?$AAt?$AAV?$AAa?$AAl?$AAu?$AAe?$AA?$CI?$AA?$CJ?$AA?5?$AA?$DN?$AA?$DN?$AA?5?$AAv?$AA8?$AA?3?$AA?3?$AAL?$AAo?$AAc?$AAa?$AAl?$AA?$DM?$AAv?$AA8?$AA?3@ 0000000180019670     bufferutil.obj
 0002:000076fc       ??_C@_06NMLLPGNI@unmask?$AA@ 00000001800196fc     bufferutil.obj
 0002:00007704       ??_C@_04LFLEPBN@mask?$AA@  0000000180019704     bufferutil.obj
 0002:0000770c       ??_C@_05DPKBJALF@merge?$AA@ 000000018001970c     bufferutil.obj
 0002:00007718       ??_C@_0L@DGEFJNAP@BufferUtil?$AA@ 0000000180019718     bufferutil.obj
 0002:00007728       ??_C@_0BF@JIAHKDON@?4?4?2src?2bufferutil?4cc?$AA@ 0000000180019728     bufferutil.obj
 0002:00007740       ??_C@_0L@HBBIDNNM@bufferutil?$AA@ 0000000180019740     bufferutil.obj
 0002:00007750       ??_C@_0BE@JONHPENG@map?1set?$DMT?$DO?5too?5long?$AA@ 0000000180019750     bufferutil.obj
 0002:00007768       ??_7ExternalSourceStream@ScriptCompiler@v8@@6B@ 0000000180019768     bufferutil.obj
 0002:00007788       ??_7ExternalOneByteStringResourceImpl@v8@@6B@ 0000000180019788     bufferutil.obj
 0002:000077a8       ??_7Allocator@ArrayBuffer@v8@@6B@ 00000001800197a8     bufferutil.obj
 0002:000077c8       ?kNoColumnInfo@Message@v8@@2HB 00000001800197c8     bufferutil.obj
 0002:000077c8       ?kNoScriptIdInfo@Message@v8@@2HB 00000001800197c8     bufferutil.obj
 0002:000077c8       ?kNoLineNumberInfo@Message@v8@@2HB 00000001800197c8     bufferutil.obj
 0002:000077c8       ?kNoScriptId@UnboundScript@v8@@2HB 00000001800197c8     bufferutil.obj
 0002:000077cc       ?kMaxLength@String@v8@@2HB 00000001800197cc     bufferutil.obj
 0002:000077d0       ?kInternalFieldCount@ArrayBufferView@v8@@2HB 00000001800197d0     bufferutil.obj
 0002:000077d0       ?kInternalFieldCount@ArrayBuffer@v8@@2HB 00000001800197d0     bufferutil.obj
 0002:000077d0       ?kInternalFieldCount@SharedArrayBuffer@v8@@2HB 00000001800197d0     bufferutil.obj
 0002:000077d8       ??_7ExternalStringResourceBase@String@v8@@6B@ 00000001800197d8     bufferutil.obj
 0002:000077e8       ??_7ObjectWrap@node@@6B@   00000001800197e8     bufferutil.obj
 0002:000077e8       ??_7BufferUtil@@6B@        00000001800197e8     bufferutil.obj
 0002:00007800       ??_7Extension@v8@@6B@      0000000180019800     bufferutil.obj
 0002:00007810       ??_7ExternalOneByteStringResource@String@v8@@6B@ 0000000180019810     bufferutil.obj
 0002:00007810       ??_7ExternalStringResource@String@v8@@6B@ 0000000180019810     bufferutil.obj
 0002:00007830       ??_7PersistentHandleVisitor@v8@@6B@ 0000000180019830     bufferutil.obj
 0002:00007830       ??_7ExternalResourceVisitor@v8@@6B@ 0000000180019830     bufferutil.obj
 0002:00007840       ??_C@_08HCOMDCCD@iojs?4exe?$AA@ 0000000180019840     win_delay_load_hook.obj
 0002:00007850       ??_C@_08JDDNMFDB@node?4exe?$AA@ 0000000180019850     win_delay_load_hook.obj
 0002:00007860       _load_config_used          0000000180019860     LIBCMT:loadcfg.obj
 0002:00007958       ??_R1A@?0A@EA@exception@std@@8 0000000180019958     libcpmt:xthrow.obj
 0002:00007980       ??_R3exception@std@@8      0000000180019980     libcpmt:xthrow.obj
 0002:00007998       ??_R2exception@std@@8      0000000180019998     libcpmt:xthrow.obj
 0002:000079a8       ??_R4bad_alloc@std@@6B@    00000001800199a8     libcpmt:xthrow.obj
 0002:000079d0       ??_R3bad_alloc@std@@8      00000001800199d0     libcpmt:xthrow.obj
 0002:000079e8       ??_R2bad_alloc@std@@8      00000001800199e8     libcpmt:xthrow.obj
 0002:00007a00       ??_R1A@?0A@EA@bad_alloc@std@@8 0000000180019a00     libcpmt:xthrow.obj
 0002:00007a28       ??_R4logic_error@std@@6B@  0000000180019a28     libcpmt:xthrow.obj
 0002:00007a50       ??_R3logic_error@std@@8    0000000180019a50     libcpmt:xthrow.obj
 0002:00007a68       ??_R2logic_error@std@@8    0000000180019a68     libcpmt:xthrow.obj
 0002:00007a80       ??_R1A@?0A@EA@logic_error@std@@8 0000000180019a80     libcpmt:xthrow.obj
 0002:00007aa8       ??_R4length_error@std@@6B@ 0000000180019aa8     libcpmt:xthrow.obj
 0002:00007ad0       ??_R3length_error@std@@8   0000000180019ad0     libcpmt:xthrow.obj
 0002:00007ae8       ??_R2length_error@std@@8   0000000180019ae8     libcpmt:xthrow.obj
 0002:00007b08       ??_R1A@?0A@EA@length_error@std@@8 0000000180019b08     libcpmt:xthrow.obj
 0002:00007b30       ??_R4type_info@@6B@        0000000180019b30     LIBCMT:typinfo.obj
 0002:00007b58       ??_R3type_info@@8          0000000180019b58     LIBCMT:typinfo.obj
 0002:00007b70       ??_R2type_info@@8          0000000180019b70     LIBCMT:typinfo.obj
 0002:00007b80       ??_R1A@?0A@EA@type_info@@8 0000000180019b80     LIBCMT:typinfo.obj
 0002:00007ba8       ??_R4exception@std@@6B@    0000000180019ba8     LIBCMT:stdexcpt.obj
 0002:00007bd0       __rtc_iaa                  0000000180019bd0     LIBCMT:initsect.obj
 0002:00007bd8       __rtc_izz                  0000000180019bd8     LIBCMT:initsect.obj
 0002:00007be0       __rtc_taa                  0000000180019be0     LIBCMT:initsect.obj
 0002:00007be8       __rtc_tzz                  0000000180019be8     LIBCMT:initsect.obj
 0002:00008910       _TI2?AVbad_alloc@std@@     000000018001a910     libcpmt:xthrow.obj
 0002:00008930       _CTA2?AVbad_alloc@std@@    000000018001a930     libcpmt:xthrow.obj
 0002:00008948       _CT??_R0?AVbad_alloc@std@@@8??0bad_alloc@std@@QEAA@AEBV01@@Z24 000000018001a948     libcpmt:xthrow.obj
 0002:00008970       _CT??_R0?AVexception@std@@@8??0exception@std@@QEAA@AEBV01@@Z24 000000018001a970     libcpmt:xthrow.obj
 0002:00008998       _CT??_R0?AVlogic_error@std@@@8??0logic_error@std@@QEAA@AEBV01@@Z24 000000018001a998     libcpmt:xthrow.obj
 0002:000089c0       _TI3?AVlength_error@std@@  000000018001a9c0     libcpmt:xthrow.obj
 0002:000089e0       _CTA3?AVlength_error@std@@ 000000018001a9e0     libcpmt:xthrow.obj
 0002:00008a00       _CT??_R0?AVlength_error@std@@@8??0length_error@std@@QEAA@AEBV01@@Z24 000000018001aa00     libcpmt:xthrow.obj
 0002:00008a24       __DELAY_IMPORT_DESCRIPTOR_node_exe 000000018001aa24     node:node.exe
 0002:00008a44       __NULL_DELAY_IMPORT_DESCRIPTOR 000000018001aa44     node:node.exe
 0002:00008c88       \177node_NULL_THUNK_DATA_DLN 000000018001ac88     node:node.exe
 0002:00009fc0       \177node_NULL_THUNK_DATA_DLB 000000018001bfc0     node:node.exe
 0002:0000dc98       __IMPORT_DESCRIPTOR_KERNEL32 000000018001fc98     kernel32:KERNEL32.dll
 0002:0000dcac       __NULL_IMPORT_DESCRIPTOR   000000018001fcac     kernel32:KERNEL32.dll
 0003:00000070       _fltused                   0000000180021070     LIBCMT:fpinit.obj
 0003:00000074       _ldused                    0000000180021074     LIBCMT:fpinit.obj
 0003:00000078       __security_cookie          0000000180021078     LIBCMT:gs_cookie.obj
 0003:00000080       __security_cookie_complement 0000000180021080     LIBCMT:gs_cookie.obj
 0003:00000088       __isa_available            0000000180021088     LIBCMT:cpu_disp.obj
 0003:0000008c       __isa_enabled              000000018002108c     LIBCMT:cpu_disp.obj
 0003:00000090       __abort_behavior           0000000180021090     LIBCMT:abort.obj
 0003:000000a0       _iob                       00000001800210a0     LIBCMT:_file.obj
 0003:00000470       _mbctype                   0000000180021470     LIBCMT:mbctype.obj
 0003:00000580       _mbcasemap                 0000000180021580     LIBCMT:mbctype.obj
 0003:00000680       __initialmbcinfo           0000000180021680     LIBCMT:mbctype.obj
 0003:000009a0       __ptmbcinfo                00000001800219a0     LIBCMT:mbctype.obj
 0003:000009a8       __flsindex                 00000001800219a8     LIBCMT:tidtable.obj
 0003:00000b20       __mb_cur_max               0000000180021b20     LIBCMT:nlsdata.obj
 0003:00000b24       __wclocalestr              0000000180021b24     LIBCMT:nlsdata.obj
 0003:00000b30       __lc_time_c                0000000180021b30     LIBCMT:nlsdata.obj
 0003:00000df0       __ptlocinfo                0000000180021df0     LIBCMT:nlsdata.obj
 0003:00000e00       __initiallocinfo           0000000180021e00     LIBCMT:nlsdata.obj
 0003:00000f58       __globallocalestatus       0000000180021f58     LIBCMT:glstatus.obj
 0003:00000f70       __badioinfo                0000000180021f70     LIBCMT:ioinit.obj
 0003:00000fd0       _cfltcvt_tab               0000000180021fd0     LIBCMT:cmiscdat.obj
 0003:00001430       _matherr_flag              0000000180022430     LIBCMT:matherr.obj
 0003:00001440       __lconv_c                  0000000180022440     LIBCMT:lconv.obj
 0003:000014d8       __lconv_static_decimal     00000001800224d8     LIBCMT:lconv.obj
 0003:000014dc       __lconv_static_W_decimal   00000001800224dc     LIBCMT:lconv.obj
 0003:000014e0       __lconv                    00000001800224e0     LIBCMT:lconv.obj
 0003:000014e8       _pctype                    00000001800224e8     LIBCMT:ctype.obj
 0003:000014f0       _pwctype                   00000001800224f0     LIBCMT:ctype.obj
 0003:00001500       __nullstring               0000000180022500     LIBCMT:output.obj
 0003:00001508       __wnullstring              0000000180022508     LIBCMT:output.obj
 0003:00001510       _d_inf                     0000000180022510     LIBCMT:util.obj
 0003:00001518       _d_ind                     0000000180022518     LIBCMT:util.obj
 0003:00001520       _d_max                     0000000180022520     LIBCMT:util.obj
 0003:00001528       _d_min                     0000000180022528     LIBCMT:util.obj
 0003:00001530       _d_mzero                   0000000180022530     LIBCMT:util.obj
 0003:00001568       _confh                     0000000180022568     LIBCMT:initcon.obj
 0003:00001570       _pow10pos                  0000000180022570     LIBCMT:constpow.obj
 0003:000016d0       _pow10neg                  00000001800226d0     LIBCMT:constpow.obj
 0003:00001830       _HUGE                      0000000180022830     LIBCMT:huge.obj
 0003:00001880       __pfnDliNotifyHook2        0000000180022880     win_delay_load_hook.obj
 0003:00001888       ??_R0?AVbad_alloc@std@@@8  0000000180022888     libcpmt:xthrow.obj
 0003:000018b0       ??_R0?AVexception@std@@@8  00000001800228b0     libcpmt:xthrow.obj
 0003:000018d8       ??_R0?AVlogic_error@std@@@8 00000001800228d8     libcpmt:xthrow.obj
 0003:00001900       ??_R0?AVlength_error@std@@@8 0000000180022900     libcpmt:xthrow.obj
 0003:00001928       ??_R0?AVtype_info@@@8      0000000180022928     LIBCMT:typinfo.obj
 0003:00001948       __imp_?Length@Buffer@node@@YA_KV?$Local@VObject@v8@@@v8@@@Z 0000000180022948     node:node.exe
 0003:00001950       __imp_?Data@Buffer@node@@YAPEADV?$Local@VObject@v8@@@v8@@@Z 0000000180022950     node:node.exe
 0003:00001958       __imp_node_module_register 0000000180022958     node:node.exe
 0003:00001960       __imp_?Initialize@Locker@v8@@AEAAXPEAVIsolate@2@@Z 0000000180022960     node:node.exe
 0003:00001968       __imp_?ToLocalEmpty@V8@v8@@CAXXZ 0000000180022968     node:node.exe
 0003:00001970       __imp_?ClearWeak@V8@v8@@CAPEAXPEAPEAVObject@internal@2@@Z 0000000180022970     node:node.exe
 0003:00001978       __imp_?MakeWeak@V8@v8@@CAXPEAPEAVObject@internal@2@PEAXP6AXAEBV?$WeakCallbackData@VValue@v8@@X@2@@Z@Z 0000000180022978     node:node.exe
 0003:00001980       __imp_?DisposeGlobal@V8@v8@@CAXPEAPEAVObject@internal@2@@Z 0000000180022980     node:node.exe
 0003:00001988       __imp_?GlobalizeReference@V8@v8@@CAPEAPEAVObject@internal@2@PEAVIsolate@42@PEAPEAV342@@Z 0000000180022988     node:node.exe
 0003:00001990       __imp_?Escape@EscapableHandleScope@v8@@AEAAPEAPEAVObject@internal@2@PEAPEAV342@@Z 0000000180022990     node:node.exe
 0003:00001998       __imp_??0EscapableHandleScope@v8@@QEAA@PEAVIsolate@1@@Z 0000000180022998     node:node.exe
 0003:000019a0       __imp_?Int32Value@Value@v8@@QEBAHXZ 00000001800229a0     node:node.exe
 0003:000019a8       __imp_?ToInt32@Value@v8@@QEBA?AV?$MaybeLocal@VInt32@v8@@@2@V?$Local@VContext@v8@@@2@@Z 00000001800229a8     node:node.exe
 0003:000019b0       __imp_?ToUint32@Value@v8@@QEBA?AV?$MaybeLocal@VUint32@v8@@@2@V?$Local@VContext@v8@@@2@@Z 00000001800229b0     node:node.exe
 0003:000019b8       __imp_?ToInteger@Value@v8@@QEBA?AV?$MaybeLocal@VInteger@v8@@@2@V?$Local@VContext@v8@@@2@@Z 00000001800229b8     node:node.exe
 0003:000019c0       __imp_?ToObject@Value@v8@@QEBA?AV?$MaybeLocal@VObject@v8@@@2@V?$Local@VContext@v8@@@2@@Z 00000001800229c0     node:node.exe
 0003:000019c8       __imp_?ToDetailString@Value@v8@@QEBA?AV?$MaybeLocal@VString@v8@@@2@V?$Local@VContext@v8@@@2@@Z 00000001800229c8     node:node.exe
 0003:000019d0       __imp_?ToString@Value@v8@@QEBA?AV?$MaybeLocal@VString@v8@@@2@V?$Local@VContext@v8@@@2@@Z 00000001800229d0     node:node.exe
 0003:000019d8       __imp_?ToNumber@Value@v8@@QEBA?AV?$MaybeLocal@VNumber@v8@@@2@V?$Local@VContext@v8@@@2@@Z 00000001800229d8     node:node.exe
 0003:000019e0       __imp_?ToBoolean@Value@v8@@QEBA?AV?$MaybeLocal@VBoolean@v8@@@2@V?$Local@VContext@v8@@@2@@Z 00000001800229e0     node:node.exe
 0003:000019e8       __imp_?InstanceTemplate@FunctionTemplate@v8@@QEAA?AV?$Local@VObjectTemplate@v8@@@2@XZ 00000001800229e8     node:node.exe
 0003:000019f0       __imp_?GetFunction@FunctionTemplate@v8@@QEAA?AV?$Local@VFunction@v8@@@2@XZ 00000001800229f0     node:node.exe
 0003:000019f8       __imp_?New@FunctionTemplate@v8@@SA?AV?$Local@VFunctionTemplate@v8@@@2@PEAVIsolate@2@P6AXAEBV?$FunctionCallbackInfo@VValue@v8@@@2@@ZV?$Local@VValue@v8@@@2@V?$Local@VSignature@v8@@@2@H@Z 00000001800229f8     node:node.exe
 0003:00001a00       __imp_?NewFromUtf8@String@v8@@SA?AV?$MaybeLocal@VString@v8@@@2@PEAVIsolate@2@PEBDW4NewStringType@2@H@Z 0000000180022a00     node:node.exe
 0003:00001a08       __imp_?Length@Array@v8@@QEBAIXZ 0000000180022a08     node:node.exe
 0003:00001a10       __imp_?CreateHandle@HandleScope@v8@@KAPEAPEAVObject@internal@2@PEAVIsolate@42@PEAV342@@Z 0000000180022a10     node:node.exe
 0003:00001a18       __imp_?CreateHandle@HandleScope@v8@@CAPEAPEAVObject@internal@2@PEAVHeapObject@42@PEAV342@@Z 0000000180022a18     node:node.exe
 0003:00001a20       __imp_??1HandleScope@v8@@QEAA@XZ 0000000180022a20     node:node.exe
 0003:00001a28       __imp_??0HandleScope@v8@@QEAA@PEAVIsolate@1@@Z 0000000180022a28     node:node.exe
 0003:00001a30       __imp_?SlowGetAlignedPointerFromInternalField@Object@v8@@AEAAPEAXH@Z 0000000180022a30     node:node.exe
 0003:00001a38       __imp_?SlowGetInternalField@Object@v8@@AEAA?AV?$Local@VValue@v8@@@2@H@Z 0000000180022a38     node:node.exe
 0003:00001a40       __imp_?SetAlignedPointerInInternalField@Object@v8@@QEAAXHPEAX@Z 0000000180022a40     node:node.exe
 0003:00001a48       __imp_?SetInternalField@Object@v8@@QEAAXHV?$Local@VValue@v8@@@2@@Z 0000000180022a48     node:node.exe
 0003:00001a50       __imp_?InternalFieldCount@Object@v8@@QEAAHXZ 0000000180022a50     node:node.exe
 0003:00001a58       __imp_?Get@Object@v8@@QEAA?AV?$Local@VValue@v8@@@2@I@Z 0000000180022a58     node:node.exe
 0003:00001a60       __imp_?Set@Object@v8@@QEAA?AV?$Maybe@_N@2@V?$Local@VContext@v8@@@2@V?$Local@VValue@v8@@@2@1@Z 0000000180022a60     node:node.exe
 0003:00001a68       __imp_?Initialize@Unlocker@v8@@AEAAXPEAVIsolate@2@@Z 0000000180022a68     node:node.exe
 0003:00001a70       __imp_?Set@Template@v8@@QEAAXV?$Local@VName@v8@@@2@V?$Local@VData@v8@@@2@W4PropertyAttribute@2@@Z 0000000180022a70     node:node.exe
 0003:00001a78       __imp_?SetInternalFieldCount@ObjectTemplate@v8@@QEAAXH@Z 0000000180022a78     node:node.exe
 0003:00001a80       __imp_?SetHandler@ObjectTemplate@v8@@QEAAXAEBUIndexedPropertyHandlerConfiguration@2@@Z 0000000180022a80     node:node.exe
 0003:00001a88       __imp_?NewInstance@ObjectTemplate@v8@@QEAA?AV?$MaybeLocal@VObject@v8@@@2@V?$Local@VContext@v8@@@2@@Z 0000000180022a88     node:node.exe
 0003:00001a90       __imp_?New@ObjectTemplate@v8@@SA?AV?$Local@VObjectTemplate@v8@@@2@PEAVIsolate@2@V?$Local@VFunctionTemplate@v8@@@2@@Z 0000000180022a90     node:node.exe
 0003:00001a98       __imp_?SetName@Function@v8@@QEAAXV?$Local@VString@v8@@@2@@Z 0000000180022a98     node:node.exe
 0003:00001aa0       __imp_?NewInstance@Function@v8@@QEBA?AV?$MaybeLocal@VObject@v8@@@2@V?$Local@VContext@v8@@@2@HQEAV?$Local@VValue@v8@@@2@@Z 0000000180022aa0     node:node.exe
 0003:00001aa8       __imp_?CollectAllGarbage@Isolate@v8@@AEAAXPEBD@Z 0000000180022aa8     node:node.exe
 0003:00001ab0       __imp_?VisitHandlesForPartialDependence@Isolate@v8@@QEAAXPEAVPersistentHandleVisitor@2@@Z 0000000180022ab0     node:node.exe
 0003:00001ab8       __imp_?VisitHandlesWithClassIds@Isolate@v8@@QEAAXPEAVPersistentHandleVisitor@2@@Z 0000000180022ab8     node:node.exe
 0003:00001ac0       __imp_?VisitExternalResources@Isolate@v8@@QEAAXPEAVExternalResourceVisitor@2@@Z 0000000180022ac0     node:node.exe
 0003:00001ac8       __imp_?RemoveMemoryAllocationCallback@Isolate@v8@@QEAAXP6AXW4ObjectSpace@2@W4AllocationAction@2@H@Z@Z 0000000180022ac8     node:node.exe
 0003:00001ad0       __imp_?AddMemoryAllocationCallback@Isolate@v8@@QEAAXP6AXW4ObjectSpace@2@W4AllocationAction@2@H@Z01@Z 0000000180022ad0     node:node.exe
 0003:00001ad8       __imp_?SetCaptureStackTraceForUncaughtExceptions@Isolate@v8@@QEAAX_NHW4StackTraceOptions@StackTrace@2@@Z 0000000180022ad8     node:node.exe
 0003:00001ae0       __imp_?SetFailedAccessCheckCallbackFunction@Isolate@v8@@QEAAXP6AXV?$Local@VObject@v8@@@2@W4AccessType@2@V?$Local@VValue@v8@@@2@@Z@Z 0000000180022ae0     node:node.exe
 0003:00001ae8       __imp_?RemoveMessageListeners@Isolate@v8@@QEAAXP6AXV?$Local@VMessage@v8@@@2@V?$Local@VValue@v8@@@2@@Z@Z 0000000180022ae8     node:node.exe
 0003:00001af0       __imp_?AddMessageListener@Isolate@v8@@QEAA_NP6AXV?$Local@VMessage@v8@@@2@V?$Local@VValue@v8@@@2@@Z1@Z 0000000180022af0     node:node.exe
 0003:00001af8       __imp_?IsDead@Isolate@v8@@QEAA_NXZ 0000000180022af8     node:node.exe
 0003:00001b00       __imp_?SetAllowCodeGenerationFromStringsCallback@Isolate@v8@@QEAAXP6A_NV?$Local@VContext@v8@@@2@@Z@Z 0000000180022b00     node:node.exe
 0003:00001b08       __imp_?SetFatalErrorHandler@Isolate@v8@@QEAAXP6AXPEBD0@Z@Z 0000000180022b08     node:node.exe
 0003:00001b10       __imp_?CancelTerminateExecution@Isolate@v8@@QEAAXXZ 0000000180022b10     node:node.exe
 0003:00001b18       __imp_?IsExecutionTerminating@Isolate@v8@@QEAA_NXZ 0000000180022b18     node:node.exe
 0003:00001b20       __imp_?TerminateExecution@Isolate@v8@@QEAAXXZ 0000000180022b20     node:node.exe
 0003:00001b28       __imp_?RemoveGCEpilogueCallback@Isolate@v8@@QEAAXP6AXPEAV12@W4GCType@2@W4GCCallbackFlags@2@@Z@Z 0000000180022b28     node:node.exe
 0003:00001b30       __imp_?RemoveGCPrologueCallback@Isolate@v8@@QEAAXP6AXPEAV12@W4GCType@2@W4GCCallbackFlags@2@@Z@Z 0000000180022b30     node:node.exe
 0003:00001b38       __imp_?GetCurrentContext@Isolate@v8@@QEAA?AV?$Local@VContext@v8@@@2@XZ 0000000180022b38     node:node.exe
 0003:00001b40       __imp_?Exit@Isolate@v8@@QEAAXXZ 0000000180022b40     node:node.exe
 0003:00001b48       __imp_?Enter@Isolate@v8@@QEAAXXZ 0000000180022b48     node:node.exe
 0003:00001b50       __imp_?GetCurrent@Isolate@v8@@SAPEAV12@XZ 0000000180022b50     node:node.exe
 0003:00001b58       __imp_?ResetToBookmark@ExternalSourceStream@ScriptCompiler@v8@@UEAAXXZ 0000000180022b58     node:node.exe
 0003:00001b60       __imp_?SetBookmark@ExternalSourceStream@ScriptCompiler@v8@@UEAA_NXZ 0000000180022b60     node:node.exe
 0003:00001b68       \177node_NULL_THUNK_DATA_DLA 0000000180022b68     node:node.exe
 0003:00001b80       __hmod__node_exe           0000000180022b80     node:node.exe
 0003:00001b98       _aenvptr                   0000000180022b98     LIBCMT:dllcrt0.obj
 0003:00001ba0       _wenvptr                   0000000180022ba0     LIBCMT:dllcrt0.obj
 0003:00001ba8       __fastflag                 0000000180022ba8     LIBCMT:fpinit.obj
 0003:00002124       __favor                    0000000180023124     LIBCMT:cpu_disp.obj
 0003:00002128       __pInvalidArgHandler       0000000180023128     LIBCMT:invarg.obj
 0003:00002130       _C_Exit_Done               0000000180023130     LIBCMT:crt0dat.obj
 0003:00002134       __argc                     0000000180023134     LIBCMT:crt0dat.obj
 0003:00002138       __argv                     0000000180023138     LIBCMT:crt0dat.obj
 0003:00002140       __wargv                    0000000180023140     LIBCMT:crt0dat.obj
 0003:00002148       _environ                   0000000180023148     LIBCMT:crt0dat.obj
 0003:00002150       _wenviron                  0000000180023150     LIBCMT:crt0dat.obj
 0003:00002158       _pgmptr                    0000000180023158     LIBCMT:crt0dat.obj
 0003:00002160       _wpgmptr                   0000000180023160     LIBCMT:crt0dat.obj
 0003:00002168       _umaskval                  0000000180023168     LIBCMT:crt0dat.obj
 0003:0000216c       _exitflag                  000000018002316c     LIBCMT:crt0dat.obj
 0003:00002170       _C_Termination_Done        0000000180023170     LIBCMT:crt0dat.obj
 0003:00002178       __winitenv                 0000000180023178     LIBCMT:crt0dat.obj
 0003:00002180       __initenv                  0000000180023180     LIBCMT:crt0dat.obj
 0003:00002188       __error_mode               0000000180023188     LIBCMT:errmode.obj
 0003:0000218c       _cflush                    000000018002318c     LIBCMT:_file.obj
 0003:000021e0       __app_type                 00000001800231e0     LIBCMT:crt0msg.obj
 0003:00002818       _maxwait                   0000000180023818     LIBCMT:crtheap.obj
 0003:00002820       __pPurecall                0000000180023820     LIBCMT:inithelp.obj
 0003:00002828       ?_pnhHeap@@3P6AH_K@ZEA     0000000180023828     LIBCMT:handler.obj
 0003:00002830       __mbcodepage               0000000180023830     LIBCMT:mbctype.obj
 0003:00002834       __ismbcodepage             0000000180023834     LIBCMT:mbctype.obj
 0003:00002838       __mbulinfo                 0000000180023838     LIBCMT:mbctype.obj
 0003:00002848       __mblocalename             0000000180023848     LIBCMT:mbctype.obj
 0003:00002854       __locale_changed           0000000180023854     LIBCMT:wsetloca.obj
 0003:00002858       _crtheap                   0000000180023858     LIBCMT:heapinit.obj
 0003:00002860       __pioinfo                  0000000180023860     LIBCMT:ioinit.obj
 0003:00002b68       ?g_OutOfMemoryExceptionCallback@@3P6APEAXXZEA 0000000180023b68     LIBCMT:frame.obj
 0003:00002b70       ?__pInconsistency@@3P6AXXZEA 0000000180023b70     LIBCMT:hooks.obj
 0003:00002dc8       _stdbuf                    0000000180023dc8     LIBCMT:_sftbuf.obj
 0003:00002de0       _newmode                   0000000180023de0     LIBCMT:_newmode.obj
 0003:00002de4       __lconv_static_null        0000000180023de4     LIBCMT:lconv.obj
 0003:00002de8       __lconv_static_W_null      0000000180023de8     LIBCMT:lconv.obj
 0003:00002df0       ?m_pGetParameter@UnDecorator@@0P6APEADJ@ZEA 0000000180023df0     LIBCMT:undname.obj
 0003:00002df8       ?pArgList@UnDecorator@@0PEAVReplicator@@EA 0000000180023df8     LIBCMT:undname.obj
 0003:00002e00       ?pZNameList@UnDecorator@@0PEAVReplicator@@EA 0000000180023e00     LIBCMT:undname.obj
 0003:00002e08       ?pTemplateArgList@UnDecorator@@0PEAVReplicator@@EA 0000000180023e08     LIBCMT:undname.obj
 0003:00002e10       ?gName@UnDecorator@@0PEBDEB 0000000180023e10     LIBCMT:undname.obj
 0003:00002e18       ?name@UnDecorator@@0PEBDEB 0000000180023e18     LIBCMT:undname.obj
 0003:00002e20       ?outputString@UnDecorator@@0PEADEA 0000000180023e20     LIBCMT:undname.obj
 0003:00002e28       ?maxStringLength@UnDecorator@@0HA 0000000180023e28     LIBCMT:undname.obj
 0003:00002e2c       ?disableFlags@UnDecorator@@0KA 0000000180023e2c     LIBCMT:undname.obj
 0003:00002e30       ?fExplicitTemplateParams@UnDecorator@@0_NA 0000000180023e30     LIBCMT:undname.obj
 0003:00002e31       ?fGetTemplateArgumentList@UnDecorator@@0_NA 0000000180023e31     LIBCMT:undname.obj
 0003:00002e60       _outputformat              0000000180023e60     LIBCMT:outputformat.obj
 0003:00002e70       __pfnDliFailureHook2       0000000180023e70     DelayImp:delayhk1.obj
 0003:00002e78       ?cbmap@?1??New@?$Factory@VFunctionTemplate@v8@@@imp@Nan@@SA?AV?$Local@VFunctionTemplate@v8@@@v8@@P6AXAEBV?$FunctionCallbackInfo@VValue@v8@@@4@@ZV?$Local@VValue@v8@@@6@V?$Local@VSignature@v8@@@6@@Z@4V?$map@P6AXAEBV?$FunctionCallbackInfo@VValue@v8@@@Nan@@@ZPEAUFunctionWrapper@imp@2@U?$less@P6AXAEBV?$FunctionCallbackInfo@VValue@v8@@@Nan@@@Z@std@@V?$allocator@U?$pair@Q6AXAEBV?$FunctionCallbackInfo@VValue@v8@@@Nan@@@ZPEAUFunctionWrapper@imp@2@@std@@@6@@std@@A 0000000180023e78     bufferutil.obj
 0003:00002e88       ??_B?1???$GetWrapper@P6AXAEBV?$FunctionCallbackInfo@VValue@v8@@@Nan@@@ZUFunctionWrapper@imp@2@@imp@Nan@@YAPEAUFunctionWrapper@01@P6AXAEBV?$FunctionCallbackInfo@VValue@v8@@@1@@Z@Z@51 0000000180023e88     bufferutil.obj
 0003:00002e90       ?id@?$num_put@_WV?$back_insert_iterator@V?$basic_string@_WU?$char_traits@_W@std@@V?$allocator@_W@2@@std@@@std@@@std@@2V0locale@2@A 0000000180023e90     bufferutil.obj
 0003:00002e98       ?_System_object@?$_Error_objects@H@std@@2V_System_error_category@2@A 0000000180023e98     bufferutil.obj
 0003:00002ea0       ?haystack@?1???$GetWrapper@P6AXAEBV?$FunctionCallbackInfo@VValue@v8@@@Nan@@@ZUFunctionWrapper@imp@2@@imp@Nan@@YAPEAUFunctionWrapper@12@P6AXAEBV?$FunctionCallbackInfo@VValue@v8@@@2@@Z@Z@4V?$map@P6AXAEBV?$FunctionCallbackInfo@VValue@v8@@@Nan@@@ZPEAUFunctionWrapper@imp@2@U?$less@P6AXAEBV?$FunctionCallbackInfo@VValue@v8@@@Nan@@@Z@std@@V?$allocator@U?$pair@Q6AXAEBV?$FunctionCallbackInfo@VValue@v8@@@Nan@@@ZPEAUFunctionWrapper@imp@2@@std@@@6@@std@@A 0000000180023ea0     bufferutil.obj
 0003:00002eb0       ?id@?$numpunct@_W@std@@2V0locale@2@A 0000000180023eb0     bufferutil.obj
 0003:00002eb8       ?id@?$num_put@DV?$back_insert_iterator@V?$basic_string@DU?$char_traits@D@std@@V?$allocator@D@2@@std@@@std@@@std@@2V0locale@2@A 0000000180023eb8     bufferutil.obj
 0003:00002ec0       ?_Iostream_object@?$_Error_objects@H@std@@2V_Iostream_error_category@2@A 0000000180023ec0     bufferutil.obj
 0003:00002ec8       ??_B?1??New@?$Factory@VFunctionTemplate@v8@@@imp@Nan@@SA?AV?$Local@VFunctionTemplate@v8@@@v8@@P6AXAEBV?$FunctionCallbackInfo@VValue@v8@@@3@@ZV?$Local@VValue@v8@@@5@V?$Local@VSignature@v8@@@5@@Z@51 0000000180023ec8     bufferutil.obj
 0003:00002ed0       ?_Generic_object@?$_Error_objects@H@std@@2V_Generic_error_category@2@A 0000000180023ed0     bufferutil.obj
 0003:00002ed8       ?id@?$numpunct@D@std@@2V0locale@2@A 0000000180023ed8     bufferutil.obj
 0003:00002ee0       _debugger_hook_dummy       0000000180023ee0     <common>
 0003:00002f00       encodedKERNEL32Functions   0000000180023f00     <common>
 0003:00003008       _nhandle                   0000000180024008     <common>
 0003:00003010       __piob                     0000000180024010     <common>
 0003:00003018       _nstream                   0000000180024018     <common>
 0003:00003020       _bufin                     0000000180024020     <common>
 0003:00004020       __dyn_tls_init_callback    0000000180025020     <common>
 0003:00004028       __onexitend                0000000180025028     <common>
 0003:00004030       __onexitbegin              0000000180025030     <common>
 0003:00004038       __mbctype_initialized      0000000180025038     <common>
 0003:0000403c       __env_initialized          000000018002503c     <common>
 0003:00004040       _acmdln                    0000000180025040     <common>

 entry point at        0001:00004974

 Static symbols

 0000:fffd7000       .debug$S                   0000000180000000     node:node.exe
 0000:fffd7000       .debug$S                   0000000180000000     kernel32:KERNEL32.dll
 0000:fffd7000       .debug$S                   0000000180000000     kernel32:KERNEL32.dll
 0000:fffd7000       .debug$S                   0000000180000000     kernel32:KERNEL32.dll
 0000:fffd7000       .debug$S                   0000000180000000     kernel32:KERNEL32.dll
 0000:fffd7000       .debug$S                   0000000180000000     kernel32:KERNEL32.dll
 0000:fffd7000       .debug$S                   0000000180000000     kernel32:KERNEL32.dll
 0000:fffd7000       .debug$S                   0000000180000000     kernel32:KERNEL32.dll
 0000:fffd7000       .debug$S                   0000000180000000     kernel32:KERNEL32.dll
 0000:fffd7000       .debug$S                   0000000180000000     kernel32:KERNEL32.dll
 0000:fffd7000       .debug$S                   0000000180000000     kernel32:KERNEL32.dll
 0000:fffd7000       .debug$S                   0000000180000000     kernel32:KERNEL32.dll
 0000:fffd7000       .debug$S                   0000000180000000     kernel32:KERNEL32.dll
 0000:fffd7000       .debug$S                   0000000180000000     kernel32:KERNEL32.dll
 0000:fffd7000       .debug$S                   0000000180000000     kernel32:KERNEL32.dll
 0000:fffd7000       .debug$S                   0000000180000000     kernel32:KERNEL32.dll
 0000:fffd7000       .debug$S                   0000000180000000     kernel32:KERNEL32.dll
 0000:fffd7000       .debug$S                   0000000180000000     kernel32:KERNEL32.dll
 0000:fffd7000       .debug$S                   0000000180000000     kernel32:KERNEL32.dll
 0000:fffd7000       .debug$S                   0000000180000000     kernel32:KERNEL32.dll
 0000:fffd7000       .debug$S                   0000000180000000     kernel32:KERNEL32.dll
 0000:fffd7000       .debug$S                   0000000180000000     kernel32:KERNEL32.dll
 0000:fffd7000       .debug$S                   0000000180000000     kernel32:KERNEL32.dll
 0000:fffd7000       .debug$S                   0000000180000000     kernel32:KERNEL32.dll
 0000:fffd7000       .debug$S                   0000000180000000     kernel32:KERNEL32.dll
 0000:fffd7000       .debug$S                   0000000180000000     kernel32:KERNEL32.dll
 0000:fffd7000       .debug$S                   0000000180000000     kernel32:KERNEL32.dll
 0000:fffd7000       .debug$S                   0000000180000000     kernel32:KERNEL32.dll
 0000:fffd7000       .debug$S                   0000000180000000     kernel32:KERNEL32.dll
 0000:fffd7000       .debug$S                   0000000180000000     kernel32:KERNEL32.dll
 0000:fffd7000       .debug$S                   0000000180000000     kernel32:KERNEL32.dll
 0000:fffd7000       .debug$S                   0000000180000000     kernel32:KERNEL32.dll
 0000:fffd7000       .debug$S                   0000000180000000     kernel32:KERNEL32.dll
 0000:fffd7000       .debug$S                   0000000180000000     kernel32:KERNEL32.dll
 0000:fffd7000       .debug$S                   0000000180000000     kernel32:KERNEL32.dll
 0000:fffd7000       .debug$S                   0000000180000000     kernel32:KERNEL32.dll
 0000:fffd7000       .debug$S                   0000000180000000     kernel32:KERNEL32.dll
 0000:fffd7000       .debug$S                   0000000180000000     kernel32:KERNEL32.dll
 0000:fffd7000       .debug$S                   0000000180000000     kernel32:KERNEL32.dll
 0000:fffd7000       .debug$S                   0000000180000000     kernel32:KERNEL32.dll
 0000:fffd7000       .debug$S                   0000000180000000     kernel32:KERNEL32.dll
 0000:fffd7000       .debug$S                   0000000180000000     kernel32:KERNEL32.dll
 0000:fffd7000       .debug$S                   0000000180000000     kernel32:KERNEL32.dll
 0000:fffd7000       .debug$S                   0000000180000000     kernel32:KERNEL32.dll
 0000:fffd7000       .debug$S                   0000000180000000     kernel32:KERNEL32.dll
 0000:fffd7000       .debug$S                   0000000180000000     kernel32:KERNEL32.dll
 0000:fffd7000       .debug$S                   0000000180000000     kernel32:KERNEL32.dll
 0000:fffd7000       .debug$S                   0000000180000000     kernel32:KERNEL32.dll
 0000:fffd7000       .debug$S                   0000000180000000     kernel32:KERNEL32.dll
 0000:fffd7000       .debug$S                   0000000180000000     kernel32:KERNEL32.dll
 0000:fffd7000       .debug$S                   0000000180000000     kernel32:KERNEL32.dll
 0000:fffd7000       .debug$S                   0000000180000000     kernel32:KERNEL32.dll
 0000:fffd7000       .debug$S                   0000000180000000     kernel32:KERNEL32.dll
 0000:fffd7000       .debug$S                   0000000180000000     kernel32:KERNEL32.dll
 0000:fffd7000       .debug$S                   0000000180000000     kernel32:KERNEL32.dll
 0000:fffd7000       .debug$S                   0000000180000000     kernel32:KERNEL32.dll
 0000:fffd7000       .debug$S                   0000000180000000     kernel32:KERNEL32.dll
 0000:fffd7000       .debug$S                   0000000180000000     kernel32:KERNEL32.dll
 0000:fffd7000       .debug$S                   0000000180000000     kernel32:KERNEL32.dll
 0000:fffd7000       .debug$S                   0000000180000000     kernel32:KERNEL32.dll
 0000:fffd7000       .debug$S                   0000000180000000     kernel32:KERNEL32.dll
 0000:fffd7000       .debug$S                   0000000180000000     kernel32:KERNEL32.dll
 0000:fffd7000       .debug$S                   0000000180000000     kernel32:KERNEL32.dll
 0000:fffd7000       .debug$S                   0000000180000000     kernel32:KERNEL32.dll
 0000:fffd7000       .debug$S                   0000000180000000     kernel32:KERNEL32.dll
 0000:fffd7000       .debug$S                   0000000180000000     kernel32:KERNEL32.dll
 0000:fffd7000       .debug$S                   0000000180000000     kernel32:KERNEL32.dll
 0000:fffd7000       .debug$S                   0000000180000000     kernel32:KERNEL32.dll
 0000:fffd7000       .debug$S                   0000000180000000     node:node.exe
 0000:fffd7000       .debug$S                   0000000180000000     node:node.exe
 0000:fffd7000       .debug$S                   0000000180000000     node:node.exe
 0000:fffd7000       .debug$S                   0000000180000000     node:node.exe
 0000:fffd7000       .debug$S                   0000000180000000     node:node.exe
 0000:fffd7000       .debug$S                   0000000180000000     node:node.exe
 0000:fffd7000       .debug$S                   0000000180000000     node:node.exe
 0000:fffd7000       .debug$S                   0000000180000000     node:node.exe
 0000:fffd7000       .debug$S                   0000000180000000     node:node.exe
 0000:fffd7000       .debug$S                   0000000180000000     node:node.exe
 0000:fffd7000       .debug$S                   0000000180000000     node:node.exe
 0000:fffd7000       .debug$S                   0000000180000000     node:node.exe
 0000:fffd7000       .debug$S                   0000000180000000     node:node.exe
 0000:fffd7000       .debug$S                   0000000180000000     kernel32:KERNEL32.dll
 0000:fffd7000       .debug$S                   0000000180000000     node:node.exe
 0000:fffd7000       .debug$S                   0000000180000000     node:node.exe
 0000:fffd7000       .debug$S                   0000000180000000     node:node.exe
 0000:fffd7000       .debug$S                   0000000180000000     node:node.exe
 0000:fffd7000       .debug$S                   0000000180000000     node:node.exe
 0000:fffd7000       .debug$S                   0000000180000000     node:node.exe
 0000:fffd7000       .debug$S                   0000000180000000     node:node.exe
 0000:fffd7000       .debug$S                   0000000180000000     node:node.exe
 0000:fffd7000       .debug$S                   0000000180000000     node:node.exe
 0000:fffd7000       .debug$S                   0000000180000000     node:node.exe
 0000:fffd7000       .debug$S                   0000000180000000     node:node.exe
 0000:fffd7000       .debug$S                   0000000180000000     node:node.exe
 0000:fffd7000       .debug$S                   0000000180000000     node:node.exe
 0000:fffd7000       .debug$S                   0000000180000000     node:node.exe
 0000:fffd7000       .debug$S                   0000000180000000     node:node.exe
 0000:fffd7000       .debug$S                   0000000180000000     node:node.exe
 0000:fffd7000       .debug$S                   0000000180000000     node:node.exe
 0000:fffd7000       .debug$S                   0000000180000000     node:node.exe
 0000:fffd7000       .debug$S                   0000000180000000     node:node.exe
 0000:fffd7000       .debug$S                   0000000180000000     node:node.exe
 0000:fffd7000       .debug$S                   0000000180000000     node:node.exe
 0000:fffd7000       .debug$S                   0000000180000000     node:node.exe
 0000:fffd7000       .debug$S                   0000000180000000     node:node.exe
 0000:fffd7000       .debug$S                   0000000180000000     node:node.exe
 0000:fffd7000       .debug$S                   0000000180000000     node:node.exe
 0000:fffd7000       .debug$S                   0000000180000000     node:node.exe
 0000:fffd7000       .debug$S                   0000000180000000     node:node.exe
 0000:fffd7000       .debug$S                   0000000180000000     node:node.exe
 0000:fffd7000       .debug$S                   0000000180000000     node:node.exe
 0000:fffd7000       .debug$S                   0000000180000000     node:node.exe
 0000:fffd7000       .debug$S                   0000000180000000     node:node.exe
 0000:fffd7000       .debug$S                   0000000180000000     node:node.exe
 0000:fffd7000       .debug$S                   0000000180000000     node:node.exe
 0000:fffd7000       .debug$S                   0000000180000000     node:node.exe
 0000:fffd7000       .debug$S                   0000000180000000     node:node.exe
 0000:fffd7000       .debug$S                   0000000180000000     node:node.exe
 0000:fffd7000       .debug$S                   0000000180000000     node:node.exe
 0000:fffd7000       .debug$S                   0000000180000000     node:node.exe
 0000:fffd7000       .debug$S                   0000000180000000     node:node.exe
 0000:fffd7000       .debug$S                   0000000180000000     node:node.exe
 0000:fffd7000       .debug$S                   0000000180000000     node:node.exe
 0000:fffd7000       .debug$S                   0000000180000000     node:node.exe
 0000:fffd7000       .debug$S                   0000000180000000     node:node.exe
 0000:fffd7000       .debug$S                   0000000180000000     node:node.exe
 0000:fffd7000       .debug$S                   0000000180000000     node:node.exe
 0000:fffd7000       .debug$S                   0000000180000000     node:node.exe
 0000:fffd7000       .debug$S                   0000000180000000     node:node.exe
 0000:fffd7000       .debug$S                   0000000180000000     node:node.exe
 0000:fffd7000       .debug$S                   0000000180000000     node:node.exe
 0000:fffd7000       .debug$S                   0000000180000000     node:node.exe
 0000:fffd7000       .debug$S                   0000000180000000     node:node.exe
 0000:fffd7000       .debug$S                   0000000180000000     node:node.exe
 0000:fffd7000       .debug$S                   0000000180000000     node:node.exe
 0000:fffd7000       .debug$S                   0000000180000000     node:node.exe
 0000:fffd7000       .debug$S                   0000000180000000     kernel32:KERNEL32.dll
 0000:fffd7000       .debug$S                   0000000180000000     kernel32:KERNEL32.dll
 0000:fffd7000       .debug$S                   0000000180000000     kernel32:KERNEL32.dll
 0000:fffd7000       .debug$S                   0000000180000000     kernel32:KERNEL32.dll
 0000:fffd7000       .debug$S                   0000000180000000     kernel32:KERNEL32.dll
 0000:fffd7000       .debug$S                   0000000180000000     kernel32:KERNEL32.dll
 0000:fffd7000       .debug$S                   0000000180000000     kernel32:KERNEL32.dll
 0000:fffd7000       .debug$S                   0000000180000000     kernel32:KERNEL32.dll
 0000:fffd7000       .debug$S                   0000000180000000     kernel32:KERNEL32.dll
 0000:fffd7000       .debug$S                   0000000180000000     kernel32:KERNEL32.dll
 0000:fffd7000       .debug$S                   0000000180000000     kernel32:KERNEL32.dll
 0000:fffd7000       .debug$S                   0000000180000000     kernel32:KERNEL32.dll
 0000:fffd7000       .debug$S                   0000000180000000     kernel32:KERNEL32.dll
 0000:fffd7000       .debug$S                   0000000180000000     kernel32:KERNEL32.dll
 0001:00000000       ??__Epiecewise_construct@std@@YAXXZ 0000000180001000 f   bufferutil.obj
 0001:00000010       ??__Eallocator_arg@std@@YAXXZ 0000000180001010 f   bufferutil.obj
 0001:00000020       ??__Eignore@std@@YAXXZ     0000000180001020 f   bufferutil.obj
 0001:00000030       ??__E_Tuple_alloc@std@@YAXXZ 0000000180001030 f   bufferutil.obj
 0001:00001520       ?FunctionCallbackWrapper@imp@Nan@@YAXAEBV?$FunctionCallbackInfo@VValue@v8@@@v8@@@Z 0000000180002520 f   bufferutil.obj
 0001:00002110       _register_bufferutil       0000000180003110 f   bufferutil.obj
 0001:00002fb0       load_exe_hook              0000000180003fb0 f   win_delay_load_hook.obj
 0001:00003520       $$000000                   0000000180004520     LIBCMT:amdsecgs.obj
 0001:00003550       $$000000                   0000000180004550     LIBCMT:memcpy.obj
 0001:00003640       MoveSmall                  0000000180004640     LIBCMT:memcpy.obj
 0001:00004408       swprintf                   0000000180005408 f   LIBCMT:wassert.obj
 0001:000049b4       __DllMainCRTStartup        00000001800059b4 f   LIBCMT:dllcrt0.obj
 0001:00004ae0       $$000000                   0000000180005ae0     LIBCMT:strlen.obj
 0001:0000589c       _initterm                  000000018000689c f   LIBCMT:crt0dat.obj
 0001:00005950       doexit                     0000000180006950 f   LIBCMT:crt0dat.obj
 0001:00005bc4       xtow_s                     0000000180006bc4 f   LIBCMT:xtows.obj
 0001:00005fc8       flsall                     0000000180006fc8 f   LIBCMT:fflush.obj
 0001:00007498       ?getSystemCP@@YAHH@Z       0000000180008498 f   LIBCMT:mbctype.obj
 0001:00007518       ?setSBCS@@YAXPEAUthreadmbcinfostruct@@@Z 0000000180008518 f   LIBCMT:mbctype.obj
 0001:000075a8       ?setSBUpLow@@YAXPEAUthreadmbcinfostruct@@@Z 00000001800085a8 f   LIBCMT:mbctype.obj
 0001:000089fc       parse_cmdline              00000001800099fc f   LIBCMT:stdargv.obj
 0001:000095d0       $$000000                   000000018000a5d0     LIBCMT:strcmp.obj
 0001:00009b08       _cftoe2_l                  000000018000ab08 f   LIBCMT:cvt.obj
 0001:00009dfc       _cftof2_l                  000000018000adfc f   LIBCMT:cvt.obj
 0001:0000a3a0       $$000000                   000000018000b3a0     LIBCMT:memset.obj
 0001:0000a545       MsetTab                    000000018000b545     LIBCMT:memset.obj
 0001:0000bf20       write_char                 000000018000cf20 f   LIBCMT:woutput.obj
 0001:0000bf58       write_multi_char           000000018000cf58 f   LIBCMT:woutput.obj
 0001:0000bfac       write_string               000000018000cfac f   LIBCMT:woutput.obj
 0001:0000c410       $$000000                   000000018000d410     LIBCMT:jmpuwind.obj
 0001:0000c630       $$000000                   000000018000d630     LIBCMT:fpsr.obj
 0001:0000cc04       ?__crtLCMapStringA_stat@@YAHPEAUlocaleinfo_struct@@PEB_WKPEBDHPEADHHH@Z 000000018000dc04 f   LIBCMT:a_map.obj
 0001:0000cf88       ?__crtGetStringTypeA_stat@@YAHPEAUlocaleinfo_struct@@KPEBDHPEAGHH@Z 000000018000df88 f   LIBCMT:a_str.obj
 0001:0000d2f0       $$000000                   000000018000e2f0     LIBCMT:memcmp.obj
 0001:0000d3c8       ?x_ismbbtype_l@@YAHPEAUlocaleinfo_struct@@IHH@Z 000000018000e3c8 f   LIBCMT:ismbbyte.obj
 0001:0000d460       $$000000                   000000018000e460     LIBCMT:handlers.obj
 0001:0000e0e0       $$000000                   000000018000f0e0     LIBCMT:chkstk.obj
 0001:00010c30       _onexit$fin$0              0000000180011c30 f   LIBCMT:onexit.obj
 0001:00010c44       _CRT_INIT$fin$0            0000000180011c44 f   LIBCMT:dllcrt0.obj
 0001:00010c6a       __DllMainCRTStartup$filt$0 0000000180011c6a f   LIBCMT:dllcrt0.obj
 0001:00010cb3       doexit$fin$0               0000000180011cb3 f   LIBCMT:crt0dat.obj
 0001:00010cd7       fflush$fin$0               0000000180011cd7 f   LIBCMT:fflush.obj
 0001:00010cd7       fclose$fin$0               0000000180011cd7 f   LIBCMT:fflush.obj
 0001:00010cef       flsall$fin$0               0000000180011cef f   LIBCMT:fflush.obj
 0001:00010d17       flsall$fin$1               0000000180011d17 f   LIBCMT:fflush.obj
 0001:00010d30       setvbuf$fin$0              0000000180011d30 f   LIBCMT:setvbuf.obj
 0001:00010d48       fwprintf$fin$0             0000000180011d48 f   LIBCMT:fwprintf.obj
 0001:00010d62       raise$fin$0                0000000180011d62 f   LIBCMT:winsig.obj
 0001:00010d80       _setmbcp$fin$0             0000000180011d80 f   LIBCMT:mbctype.obj
 0001:00010d80       __updatetmbcinfo$fin$0     0000000180011d80 f   LIBCMT:mbctype.obj
 0001:00010d99       _initptd$fin$1             0000000180011d99 f   LIBCMT:tidtable.obj
 0001:00010d99       _freefls$fin$1             0000000180011d99 f   LIBCMT:tidtable.obj
 0001:00010db2       _initptd$fin$0             0000000180011db2 f   LIBCMT:tidtable.obj
 0001:00010db2       _freefls$fin$0             0000000180011db2 f   LIBCMT:tidtable.obj
 0001:00010dcb       _locterm$fin$0             0000000180011dcb f   LIBCMT:wsetloca.obj
 0001:00010dcb       __updatetlocinfo$fin$0     0000000180011dcb f   LIBCMT:wsetloca.obj
 0001:00010de4       _ioinit$fin$0              0000000180011de4 f   LIBCMT:ioinit.obj
 0001:00010dff       __DestructExceptionObject$filt$0 0000000180011dff f   LIBCMT:frame.obj
 0001:00010e17       ?fin$0@?0??_Type_info_dtor@type_info@@CAXPEAV1@@Z@4HA 0000000180011e17 f   LIBCMT:typname.obj
 0001:00010e30       _mtinitlocknum$fin$0       0000000180011e30 f   LIBCMT:mlock.obj
 0001:00010e50       _IsNonwritableInCurrentImage$filt$0 0000000180011e50 f   LIBCMT:pesect.obj
 0001:00010e70       _fcloseall$fin$0           0000000180011e70 f   LIBCMT:closeall.obj
 0001:00010e89       _close$fin$0               0000000180011e89 f   LIBCMT:commit.obj
 0001:00010e89       _commit$fin$0              0000000180011e89 f   LIBCMT:commit.obj
 0001:00010ea0       __lock_fhandle$fin$0       0000000180011ea0 f   LIBCMT:osfinfo.obj
 0001:00010eb9       _lseeki64$fin$0            0000000180011eb9 f   LIBCMT:lseeki64.obj
 0001:00010eb9       _write$fin$0               0000000180011eb9 f   LIBCMT:lseeki64.obj
 0001:00010f40       ??__Fhaystack@?1???$GetWrapper@P6AXAEBV?$FunctionCallbackInfo@VValue@v8@@@Nan@@@ZUFunctionWrapper@imp@2@@imp@Nan@@YAPEAUFunctionWrapper@01@P6AXAEBV?$FunctionCallbackInfo@VValue@v8@@@1@@Z@Z@YAXXZ 0000000180011f40 f   bufferutil.obj
 0002:00000230       piecewise_construct$initializer$ 0000000180012230     bufferutil.obj
 0002:00000238       allocator_arg$initializer$ 0000000180012238     bufferutil.obj
 0002:00000240       ignore$initializer$        0000000180012240     bufferutil.obj
 0002:00000248       _Tuple_alloc$initializer$  0000000180012248     bufferutil.obj
 0002:00000268       pinit                      0000000180012268     LIBCMT:onexit.obj
 0002:00000270       pinit                      0000000180012270     LIBCMT:cpu_disp.obj
 0002:00000278       pinit                      0000000180012278     LIBCMT:_file.obj
 0002:00000280       pinit                      0000000180012280     LIBCMT:mbctype.obj
 0002:00000298       pterm                      0000000180012298     LIBCMT:wsetloca.obj
 0002:000002a0       pterm                      00000001800122a0     LIBCMT:initcon.obj
 0002:000002a8       pterm                      00000001800122a8     LIBCMT:_file.obj
 0002:00000320       _Win_errtab                0000000180012320     libcpmt:syserror.obj
 0002:000007d0       _Sys_errtab                00000001800127d0     libcpmt:syserror.obj
 0002:000018f0       ?ExceptionTemplate@?1??_CxxThrowException@@9@4UEHExceptionRecord@@B 00000001800138f0     LIBCMT:throw.obj
 0002:00001978       GS_ExceptionPointers       0000000180013978     LIBCMT:gs_report.obj
 0002:00001a40       rterrs                     0000000180013a40     LIBCMT:crt0msg.obj
 0002:00002518       _mb_locale_names           0000000180014518     LIBCMT:mbctype.obj
 0002:00002930       _first_127char             0000000180014930     LIBCMT:wsetloca.obj
 0002:000060c0       __real@433fffffffffffff    00000001800180c0     LIBCMT:fpsr.obj
 0002:000060c8       __real@c33fffffffffffff    00000001800180c8     LIBCMT:fpsr.obj
 0002:000069c0       tokenTable                 00000001800189c0     LIBCMT:undname.obj
 0002:00006a30       nameTable                  0000000180018a30     LIBCMT:undname.obj
 0002:00006cb0       rttiTable                  0000000180018cb0     LIBCMT:undname.obj
 0002:00007bf0       $unwind$__crtCorExitProcess 0000000180019bf0     LIBCMT:crt0dat.obj
 0002:00007bf0       $unwind$??_EExternalStringResource@String@v8@@UEAAPEAXI@Z 0000000180019bf0     bufferutil.obj
 0002:00007bf0       $unwind$?_Tidy@exception@std@@AEAAXXZ 0000000180019bf0     LIBCMT:stdexcpt.obj
 0002:00007bf0       $unwind$??_EExternalOneByteStringResource@String@v8@@UEAAPEAXI@Z 0000000180019bf0     bufferutil.obj
 0002:00007bf0       $unwind$??0logic_error@std@@QEAA@AEBV01@@Z 0000000180019bf0     libcpmt:xthrow.obj
 0002:00007bf0       $unwind$load_exe_hook      0000000180019bf0     win_delay_load_hook.obj
 0002:00007bf0       $unwind$??0length_error@std@@QEAA@AEBV01@@Z 0000000180019bf0     libcpmt:xthrow.obj
 0002:00007bf0       $unwind$??0_LocaleUpdate@@QEAA@PEAUlocaleinfo_struct@@@Z 0000000180019bf0     LIBCMT:stricmp.obj
 0002:00007bf0       $unwind$__onexitinit       0000000180019bf0     LIBCMT:onexit.obj
 0002:00007bf0       $unwind$??__Fhaystack@?1???$GetWrapper@P6AXAEBV?$FunctionCallbackInfo@VValue@v8@@@Nan@@@ZUFunctionWrapper@imp@2@@imp@Nan@@YAPEAUFunctionWrapper@01@P6AXAEBV?$FunctionCallbackInfo@VValue@v8@@@1@@Z@Z@YAXXZ 0000000180019bf0     bufferutil.obj
 0002:00007bf0       $unwind$_cinit             0000000180019bf0     LIBCMT:crt0dat.obj
 0002:00007bf0       $unwind$__raise_securityfailure 0000000180019bf0     LIBCMT:gs_report.obj
 0002:00007bf0       $unwind$__crtIsPackagedApp 0000000180019bf0     LIBCMT:winapisupp.obj
 0002:00007bf0       $unwind$??_EAllocator@ArrayBuffer@v8@@UEAAPEAXI@Z 0000000180019bf0     bufferutil.obj
 0002:00007bf0       $unwind$__crtUnhandledException 0000000180019bf0     LIBCMT:winapisupp.obj
 0002:00007bf0       $unwind$__crtTerminateProcess 0000000180019bf0     LIBCMT:winapisupp.obj
 0002:00007bf0       $unwind$__crtLoadWinApiPointers 0000000180019bf0     LIBCMT:winapisupp.obj
 0002:00007bf0       $unwind$??0bad_alloc@std@@QEAA@AEBV01@@Z 0000000180019bf0     libcpmt:xthrow.obj
 0002:00007bf0       $unwind$_getptd            0000000180019bf0     LIBCMT:tidtable.obj
 0002:00007bf0       $unwind$??0exception@std@@QEAA@AEBQEBD@Z 0000000180019bf0     LIBCMT:stdexcpt.obj
 0002:00007bf0       $unwind$??_EExternalOneByteStringResourceImpl@v8@@UEAAPEAXI@Z 0000000180019bf0     bufferutil.obj
 0002:00007bf0       $unwind$??__Fcbmap@?1??New@?$Factory@VFunctionTemplate@v8@@@imp@Nan@@SA?AV?$Local@VFunctionTemplate@v8@@@v8@@P6AXAEBV?$FunctionCallbackInfo@VValue@v8@@@3@@ZV?$Local@VValue@v8@@@5@V?$Local@VSignature@v8@@@5@@Z@YAXXZ 0000000180019bf0     bufferutil.obj
 0002:00007bf0       $unwind$__crtExitProcess   0000000180019bf0     LIBCMT:crt0dat.obj
 0002:00007bf0       $unwind$??_EExternalStringResourceBase@String@v8@@UEAAPEAXI@Z 0000000180019bf0     bufferutil.obj
 0002:00007bf0       $unwind$??_EExternalSourceStream@ScriptCompiler@v8@@UEAAPEAXI@Z 0000000180019bf0     bufferutil.obj
 0002:00007bf0       $unwind$??_EExtension@v8@@UEAAPEAXI@Z 0000000180019bf0     bufferutil.obj
 0002:00007bf0       $unwind$__GSHandlerCheckCommon 0000000180019bf0     LIBCMT:gshandler.obj
 0002:00007bf0       $unwind$_freeptd           0000000180019bf0     LIBCMT:tidtable.obj
 0002:00007bf0       $unwind$_amsg_exit         0000000180019bf0     LIBCMT:crt0dat.obj
 0002:00007bf0       $unwind$??0exception@std@@QEAA@AEBV01@@Z 0000000180019bf0     LIBCMT:stdexcpt.obj
 0002:00007bf0       $unwind$??_EExternalResourceVisitor@v8@@UEAAPEAXI@Z 0000000180019bf0     bufferutil.obj
 0002:00007bf0       $unwind$_mtinit            0000000180019bf0     LIBCMT:tidtable.obj
 0002:00007bf0       $unwind$_lock_file         0000000180019bf0     LIBCMT:_file.obj
 0002:00007bf0       $unwind$??_EPersistentHandleVisitor@v8@@UEAAPEAXI@Z 0000000180019bf0     bufferutil.obj
 0002:00007bf0       $unwind$_lock_file2        0000000180019bf0     LIBCMT:_file.obj
 0002:00007bf0       $unwind$??0Scope@Isolate@v8@@QEAA@PEAV12@@Z 0000000180019bf0     bufferutil.obj
 0002:00007bf0       $unwind$??0Unlocker@v8@@QEAA@PEAVIsolate@1@@Z 0000000180019bf0     bufferutil.obj
 0002:00007bf0       $unwind$??0Locker@v8@@QEAA@PEAVIsolate@1@@Z 0000000180019bf0     bufferutil.obj
 0002:00007bf0       $unwind$write_char         0000000180019bf0     LIBCMT:woutput.obj
 0002:00007bf0       $unwind$?GetInternalField@Object@v8@@QEAA?AV?$Local@VValue@v8@@@2@H@Z 0000000180019bf0     bufferutil.obj
 0002:00007bf0       $unwind$_freebuf           0000000180019bf0     LIBCMT:_freebuf.obj
 0002:00007bf0       $unwind$_getbuf            0000000180019bf0     LIBCMT:_getbuf.obj
 0002:00007bf0       $unwind$?Unref@ObjectWrap@node@@MEAAXXZ 0000000180019bf0     bufferutil.obj
 0002:00007bf0       $unwind$?Ref@ObjectWrap@node@@MEAAXXZ 0000000180019bf0     bufferutil.obj
 0002:00007bf0       $unwind$?VisitHandlesWithClassIds@V8@v8@@SAXPEAVPersistentHandleVisitor@2@@Z 0000000180019bf0     bufferutil.obj
 0002:00007bf0       $unwind$?VisitExternalResources@V8@v8@@SAXPEAVExternalResourceVisitor@2@@Z 0000000180019bf0     bufferutil.obj
 0002:00007bf0       $unwind$?RemoveMemoryAllocationCallback@V8@v8@@SAXP6AXW4ObjectSpace@2@W4AllocationAction@2@H@Z@Z 0000000180019bf0     bufferutil.obj
 0002:00007bf0       $unwind$_fflush_nolock     0000000180019bf0     LIBCMT:fflush.obj
 0002:00007bf0       $unwind$_callnewh          0000000180019bf0     LIBCMT:handler.obj
 0002:00007bf0       $unwind$?RemoveGCEpilogueCallback@V8@v8@@SAXP6AXW4GCType@2@W4GCCallbackFlags@2@@Z@Z 0000000180019bf0     bufferutil.obj
 0002:00007bf0       $unwind$wcsncpy_s          0000000180019bf0     LIBCMT:wcsncpy_s.obj
 0002:00007bf0       $unwind$wcsncat_s          0000000180019bf0     LIBCMT:wcsncat_s.obj
 0002:00007bf0       $unwind$wcscpy_s           0000000180019bf0     LIBCMT:wcscpy_s.obj
 0002:00007bf0       $unwind$wcscat_s           0000000180019bf0     LIBCMT:wcscat_s.obj
 0002:00007bf0       $unwind$?RemoveGCPrologueCallback@V8@v8@@SAXP6AXW4GCType@2@W4GCCallbackFlags@2@@Z@Z 0000000180019bf0     bufferutil.obj
 0002:00007bf0       $unwind$strcpy_s           0000000180019bf0     LIBCMT:strcpy_s.obj
 0002:00007bf0       $unwind$?GetEmbedderData@Context@v8@@QEAA?AV?$Local@VValue@v8@@@2@H@Z 0000000180019bf0     bufferutil.obj
 0002:00007bf0       $unwind$?SetAllowCodeGenerationFromStringsCallback@V8@v8@@SAXP6A_NV?$Local@VContext@v8@@@2@@Z@Z 0000000180019bf0     bufferutil.obj
 0002:00007bf0       $unwind$_init_pointers     0000000180019bf0     LIBCMT:crt0dat.obj
 0002:00007bf0       $unwind$?SetFatalErrorHandler@V8@v8@@SAXP6AXPEBD0@Z@Z 0000000180019bf0     bufferutil.obj
 0002:00007bf0       $unwind$?SetFailedAccessCheckCallbackFunction@V8@v8@@SAXP6AXV?$Local@VObject@v8@@@2@W4AccessType@2@V?$Local@VValue@v8@@@2@@Z@Z 0000000180019bf0     bufferutil.obj
 0002:00007bf0       $unwind$?RemoveMessageListeners@V8@v8@@SAXP6AXV?$Local@VMessage@v8@@@2@V?$Local@VValue@v8@@@2@@Z@Z 0000000180019bf0     bufferutil.obj
 0002:00007bf8       $chain$0$??_EExternalSourceStream@ScriptCompiler@v8@@UEAAPEAXI@Z 0000000180019bf8     bufferutil.obj
 0002:00007c0c       $chain$1$??_EExternalSourceStream@ScriptCompiler@v8@@UEAAPEAXI@Z 0000000180019c0c     bufferutil.obj
 0002:00007c1c       $chain$0$??_EExternalOneByteStringResource@String@v8@@UEAAPEAXI@Z 0000000180019c1c     bufferutil.obj
 0002:00007c1c       $chain$0$??_EExternalStringResourceBase@String@v8@@UEAAPEAXI@Z 0000000180019c1c     bufferutil.obj
 0002:00007c1c       $chain$0$??_EExternalStringResource@String@v8@@UEAAPEAXI@Z 0000000180019c1c     bufferutil.obj
 0002:00007c30       $chain$1$??_EExternalStringResource@String@v8@@UEAAPEAXI@Z 0000000180019c30     bufferutil.obj
 0002:00007c30       $chain$1$??_EExternalOneByteStringResource@String@v8@@UEAAPEAXI@Z 0000000180019c30     bufferutil.obj
 0002:00007c30       $chain$1$??_EExternalStringResourceBase@String@v8@@UEAAPEAXI@Z 0000000180019c30     bufferutil.obj
 0002:00007c40       $unwind$?NewInstance@Function@v8@@QEBA?AV?$MaybeLocal@VObject@v8@@@2@V?$Local@VContext@v8@@@2@@Z 0000000180019c40     bufferutil.obj
 0002:00007c40       $unwind$_fassign_l         0000000180019c40     LIBCMT:cvt.obj
 0002:00007c48       $chain$0$??_EAllocator@ArrayBuffer@v8@@UEAAPEAXI@Z 0000000180019c48     bufferutil.obj
 0002:00007c5c       $chain$1$??_EAllocator@ArrayBuffer@v8@@UEAAPEAXI@Z 0000000180019c5c     bufferutil.obj
 0002:00007c6c       $unwind$?SetIndexedPropertyHandler@ObjectTemplate@v8@@QEAAXP6AXIAEBV?$PropertyCallbackInfo@VValue@v8@@@2@@ZP6AXIV?$Local@VValue@v8@@@2@0@ZP6AXIAEBV?$PropertyCallbackInfo@VInteger@v8@@@2@@ZP6AXIAEBV?$PropertyCallbackInfo@VBoolean@v8@@@2@@ZP6AXAEBV?$PropertyCallbackInfo@VArray@v8@@@2@@Z2@Z 0000000180019c6c     bufferutil.obj
 0002:00007c74       $chain$0$??_EExternalOneByteStringResourceImpl@v8@@UEAAPEAXI@Z 0000000180019c74     bufferutil.obj
 0002:00007c88       $chain$1$??_EExternalOneByteStringResourceImpl@v8@@UEAAPEAXI@Z 0000000180019c88     bufferutil.obj
 0002:00007c98       $chain$0$??_EExtension@v8@@UEAAPEAXI@Z 0000000180019c98     bufferutil.obj
 0002:00007cac       $chain$1$??_EExtension@v8@@UEAAPEAXI@Z 0000000180019cac     bufferutil.obj
 0002:00007cbc       $chain$0$??_EExternalResourceVisitor@v8@@UEAAPEAXI@Z 0000000180019cbc     bufferutil.obj
 0002:00007cbc       $chain$0$??_EPersistentHandleVisitor@v8@@UEAAPEAXI@Z 0000000180019cbc     bufferutil.obj
 0002:00007cd0       $chain$1$??_EPersistentHandleVisitor@v8@@UEAAPEAXI@Z 0000000180019cd0     bufferutil.obj
 0002:00007cd0       $chain$1$??_EExternalResourceVisitor@v8@@UEAAPEAXI@Z 0000000180019cd0     bufferutil.obj
 0002:00007ce0       $unwind$?Set@Template@v8@@QEAAXPEAVIsolate@2@PEBDV?$Local@VData@v8@@@2@@Z 0000000180019ce0     bufferutil.obj
 0002:00007cec       $unwind$??_Gexception@std@@UEAAPEAXI@Z 0000000180019cec     LIBCMT:stdexcpt.obj
 0002:00007cec       $unwind$_dosmaperr         0000000180019cec     LIBCMT:dosmap.obj
 0002:00007cec       $unwind$__initstdio        0000000180019cec     LIBCMT:_file.obj
 0002:00007cec       $unwind$?ToBoolean@Value@v8@@QEBA?AV?$Local@VBoolean@v8@@@2@XZ 0000000180019cec     bufferutil.obj
 0002:00007cec       $unwind$?ToNumber@Value@v8@@QEBA?AV?$Local@VNumber@v8@@@2@XZ 0000000180019cec     bufferutil.obj
 0002:00007cec       $unwind$_calloc_impl       0000000180019cec     LIBCMT:calloc_impl.obj
 0002:00007cec       $unwind$?ToString@Value@v8@@QEBA?AV?$Local@VString@v8@@@2@XZ 0000000180019cec     bufferutil.obj
 0002:00007cec       $unwind$_initp_misc_cfltcvt_tab 0000000180019cec     LIBCMT:cmiscdat.obj
 0002:00007cec       $unwind$??_GObjectWrap@node@@UEAAPEAXI@Z 0000000180019cec     bufferutil.obj
 0002:00007cec       $unwind$_initterm_e        0000000180019cec     LIBCMT:crt0dat.obj
 0002:00007cec       $unwind$?ToDetailString@Value@v8@@QEBA?AV?$Local@VString@v8@@@2@XZ 0000000180019cec     bufferutil.obj
 0002:00007cec       $unwind$_fptostr           0000000180019cec     LIBCMT:_fptostr.obj
 0002:00007cec       $unwind$??4exception@std@@QEAAAEAV01@AEBV01@@Z 0000000180019cec     LIBCMT:stdexcpt.obj
 0002:00007cec       $unwind$?ToObject@Value@v8@@QEBA?AV?$Local@VObject@v8@@@2@XZ 0000000180019cec     bufferutil.obj
 0002:00007cec       $unwind$??_GBufferUtil@@UEAAPEAXI@Z 0000000180019cec     bufferutil.obj
 0002:00007cec       $unwind$??_Gtype_info@@UEAAPEAXI@Z 0000000180019cec     LIBCMT:typinfo.obj
 0002:00007cec       $unwind$_fclose_nolock     0000000180019cec     LIBCMT:fclose.obj
 0002:00007cec       $unwind$?ToInteger@Value@v8@@QEBA?AV?$Local@VInteger@v8@@@2@XZ 0000000180019cec     bufferutil.obj
 0002:00007cec       $unwind$__freeCrtMemory    0000000180019cec     LIBCMT:crt0dat.obj
 0002:00007cec       $unwind$_getptd_noexit     0000000180019cec     LIBCMT:tidtable.obj
 0002:00007cec       $unwind$?AdjustAmountOfExternalAllocatedMemory@Isolate@v8@@QEAA_J_J@Z 0000000180019cec     bufferutil.obj
 0002:00007cec       $unwind$_RTC_Initialize    0000000180019cec     LIBCMT:initsect.obj
 0002:00007cec       $unwind$??_Gbad_alloc@std@@UEAAPEAXI@Z 0000000180019cec     libcpmt:xthrow.obj
 0002:00007cec       $unwind$??_Glength_error@std@@UEAAPEAXI@Z 0000000180019cec     libcpmt:xthrow.obj
 0002:00007cec       $unwind$?ToUint32@Value@v8@@QEBA?AV?$Local@VUint32@v8@@@2@XZ 0000000180019cec     bufferutil.obj
 0002:00007cec       $unwind$_updatetlocinfoEx_nolock 0000000180019cec     LIBCMT:localref.obj
 0002:00007cec       $unwind$?ToInt32@Value@v8@@QEBA?AV?$Local@VInt32@v8@@@2@XZ 0000000180019cec     bufferutil.obj
 0002:00007cec       $unwind$??_Glogic_error@std@@UEAAPEAXI@Z 0000000180019cec     libcpmt:xthrow.obj
 0002:00007cec       $unwind$_close_nolock      0000000180019cec     LIBCMT:close.obj
 0002:00007cec       $unwind$_RTC_Terminate     0000000180019cec     LIBCMT:initsect.obj
 0002:00007cec       $unwind$_lock              0000000180019cec     LIBCMT:mlock.obj
 0002:00007cf8       $unwind$atexit             0000000180019cf8     LIBCMT:onexit.obj
 0002:00007cf8       $unwind$__endstdio         0000000180019cf8     LIBCMT:_file.obj
 0002:00007cf8       $unwind$_msize             0000000180019cf8     LIBCMT:msize.obj
 0002:00007cf8       $unwind$_purecall          0000000180019cf8     LIBCMT:purevirt.obj
 0002:00007cf8       $unwind$?IsExecutionTerminating@V8@v8@@SA_NPEAVIsolate@2@@Z 0000000180019cf8     bufferutil.obj
 0002:00007cf8       $unwind$_FF_MSGBANNER      0000000180019cf8     LIBCMT:crt0msg.obj
 0002:00007cf8       $unwind$??$_Insert_at@AEAU?$pair@Q6AXAEBV?$FunctionCallbackInfo@VValue@v8@@@Nan@@@ZPEAUFunctionWrapper@imp@2@@std@@PEAU?$_Tree_node@U?$pair@Q6AXAEBV?$FunctionCallbackInfo@VValue@v8@@@Nan@@@ZPEAUFunctionWrapper@imp@2@@std@@PEAX@2@@?$_Tree@V?$_Tmap_traits@P6AXAEBV?$FunctionCallbackInfo@VValue@v8@@@Nan@@@ZPEAUFunctionWrapper@imp@2@U?$less@P6AXAEBV?$FunctionCallbackInfo@VValue@v8@@@Nan@@@Z@std@@V?$allocator@U?$pair@Q6AXAEBV?$FunctionCallbackInfo@VValue@v8@@@Nan@@@ZPEAUFunctionWrapper@imp@2@@std@@@6@$0A@@std@@@std@@IEAA?AV?$_Tree_iterator@V?$_Tree_val@U?$_Tree_simple_types@U?$pair@Q6AXAEBV?$FunctionCallbackInfo@VValue@v8@@@Nan@@@ZPEAUFunctionWrapper@imp@2@@std@@@std@@@std@@@1@_NPEAU?$_Tree_node@U?$pair@Q6AXAEBV?$FunctionCallbackInfo@VValue@v8@@@Nan@@@ZPEAUFunctionWrapper@imp@2@@std@@PEAX@1@AEAU?$pair@Q6AXAEBV?$FunctionCallbackInfo@VValue@v8@@@Nan@@@ZPEAUFunctionWrapper@imp@2@@1@1@Z 0000000180019cf8     bufferutil.obj
 0002:00007cf8       $unwind$__crtDownlevelLocaleNameToLCID 0000000180019cf8     LIBCMT:winapinls.obj
 0002:00007cf8       $unwind$_stricmp           0000000180019cf8     LIBCMT:stricmp.obj
 0002:00007cf8       $unwind$_set_error_mode    0000000180019cf8     LIBCMT:errmode.obj
 0002:00007cf8       $unwind$abort              0000000180019cf8     LIBCMT:abort.obj
 0002:00007cf8       $unwind$__crtInitializeCriticalSectionEx 0000000180019cf8     LIBCMT:winapisupp.obj
 0002:00007cf8       $unwind$__termconout       0000000180019cf8     LIBCMT:initcon.obj
 0002:00007cf8       $unwind$_heap_init         0000000180019cf8     LIBCMT:heapinit.obj
 0002:00007cf8       $unwind$__GSHandlerCheck   0000000180019cf8     LIBCMT:gshandler.obj
 0002:00007cf8       $unwind$_invoke_watson     0000000180019cf8     LIBCMT:invarg.obj
 0002:00007cf8       $unwind$?IsDead@V8@v8@@SA_NXZ 0000000180019cf8     bufferutil.obj
 0002:00007cf8       $unwind$_mtterm            0000000180019cf8     LIBCMT:tidtable.obj
 0002:00007cf8       $unwind$_initp_eh_hooks    0000000180019cf8     LIBCMT:hooks.obj
 0002:00007cf8       $unwind$_get_osfhandle     0000000180019cf8     LIBCMT:osfinfo.obj
 0002:00007cf8       $unwind$__initmbctable     0000000180019cf8     LIBCMT:mbctype.obj
 0002:00007cf8       $unwind$_errno             0000000180019cf8     LIBCMT:dosmap.obj
 0002:00007cf8       $unwind$__doserrno         0000000180019cf8     LIBCMT:dosmap.obj
 0002:00007cf8       $unwind$_fileno            0000000180019cf8     LIBCMT:fileno.obj
 0002:00007cf8       $unwind$_isatty            0000000180019cf8     LIBCMT:isatty.obj
 0002:00007d00       $unwind$?AddMessageListener@V8@v8@@SA_NP6AXV?$Local@VMessage@v8@@@2@V?$Local@VValue@v8@@@2@@Z1@Z 0000000180019d00     bufferutil.obj
 0002:00007d00       $unwind$__free_lconv_num   0000000180019d00     LIBCMT:initnum.obj
 0002:00007d00       $unwind$free               0000000180019d00     LIBCMT:free.obj
 0002:00007d08       $unwind$_ioterm            0000000180019d08     LIBCMT:ioinit.obj
 0002:00007d08       $unwind$_lseeki64_nolock   0000000180019d08     LIBCMT:lseeki64.obj
 0002:00007d08       $unwind$?SetCaptureStackTraceForUncaughtExceptions@V8@v8@@SAX_NHW4StackTraceOptions@StackTrace@2@@Z 0000000180019d08     bufferutil.obj
 0002:00007d08       $unwind$memcpy_s           0000000180019d08     LIBCMT:memcpy_s.obj
 0002:00007d08       $unwind$malloc             0000000180019d08     LIBCMT:malloc.obj
 0002:00007d08       $unwind$_DllMainCRTStartup 0000000180019d08     LIBCMT:dllcrt0.obj
 0002:00007d08       $unwind$_flush             0000000180019d08     LIBCMT:fflush.obj
 0002:00007d08       $unwind$?AddMemoryAllocationCallback@V8@v8@@SAXP6AXW4ObjectSpace@2@W4AllocationAction@2@H@Z01@Z 0000000180019d08     bufferutil.obj
 0002:00007d08       $unwind$?_Erase@?$_Tree@V?$_Tmap_traits@P6AXAEBV?$FunctionCallbackInfo@VValue@v8@@@Nan@@@ZPEAUFunctionWrapper@imp@2@U?$less@P6AXAEBV?$FunctionCallbackInfo@VValue@v8@@@Nan@@@Z@std@@V?$allocator@U?$pair@Q6AXAEBV?$FunctionCallbackInfo@VValue@v8@@@Nan@@@ZPEAUFunctionWrapper@imp@2@@std@@@6@$0A@@std@@@std@@IEAAXPEAU?$_Tree_node@U?$pair@Q6AXAEBV?$FunctionCallbackInfo@VValue@v8@@@Nan@@@ZPEAUFunctionWrapper@imp@2@@std@@PEAX@2@@Z 0000000180019d08     bufferutil.obj
 0002:00007d08       $unwind$realloc            0000000180019d08     LIBCMT:realloc.obj
 0002:00007d08       $unwind$_mtinitlocks       0000000180019d08     LIBCMT:mlock.obj
 0002:00007d18       $unwind$?Wrap@ObjectWrap@node@@IEAAXV?$Local@VObject@v8@@@v8@@@Z 0000000180019d18     bufferutil.obj
 0002:00007d24       $unwind$?WeakCallback@ObjectWrap@node@@CAXAEBV?$WeakCallbackData@VObject@v8@@VObjectWrap@node@@@v8@@@Z 0000000180019d24     bufferutil.obj
 0002:00007d24       $unwind$?x_ismbbtype_l@@YAHPEAUlocaleinfo_struct@@IHH@Z 0000000180019d24     LIBCMT:ismbbyte.obj
 0002:00007d24       $unwind$_stricmp_l         0000000180019d24     LIBCMT:stricmp.obj
 0002:00007d34       $unwind$?FunctionCallbackWrapper@imp@Nan@@YAXAEBV?$FunctionCallbackInfo@VValue@v8@@@v8@@@Z 0000000180019d34     bufferutil.obj
 0002:00007d44       $unwind$?New@?$Factory@VFunctionTemplate@v8@@@imp@Nan@@SA?AV?$Local@VFunctionTemplate@v8@@@v8@@P6AXAEBV?$FunctionCallbackInfo@VValue@v8@@@3@@ZV?$Local@VValue@v8@@@5@V?$Local@VSignature@v8@@@5@@Z 0000000180019d44     bufferutil.obj
 0002:00007d50       $chain$0$?New@?$Factory@VFunctionTemplate@v8@@@imp@Nan@@SA?AV?$Local@VFunctionTemplate@v8@@@v8@@P6AXAEBV?$FunctionCallbackInfo@VValue@v8@@@3@@ZV?$Local@VValue@v8@@@5@V?$Local@VSignature@v8@@@5@@Z 0000000180019d50     bufferutil.obj
 0002:00007d64       $chain$1$?New@?$Factory@VFunctionTemplate@v8@@@imp@Nan@@SA?AV?$Local@VFunctionTemplate@v8@@@v8@@P6AXAEBV?$FunctionCallbackInfo@VValue@v8@@@3@@ZV?$Local@VValue@v8@@@5@V?$Local@VSignature@v8@@@5@@Z 0000000180019d64     bufferutil.obj
 0002:00007d74       $unwind$?Initialize@BufferUtil@@SAXV?$Local@VObject@v8@@@v8@@@Z 0000000180019d74     bufferutil.obj
 0002:00007d84       $unwind$?getSystemCP@@YAHH@Z 0000000180019d84     LIBCMT:mbctype.obj
 0002:00007d84       $unwind$isdigit            0000000180019d84     LIBCMT:_ctype.obj
 0002:00007d84       $unwind$_cropzeros_l       0000000180019d84     LIBCMT:cvt.obj
 0002:00007d84       $unwind$isleadbyte         0000000180019d84     LIBCMT:_wctype.obj
 0002:00007d84       $unwind$??2@YAPEAX_K@Z     0000000180019d84     LIBCMT:new.obj
 0002:00007d84       $unwind$_forcdecpt_l       0000000180019d84     LIBCMT:cvt.obj
 0002:00007d84       $unwind$_isleadbyte_l      0000000180019d84     LIBCMT:_wctype.obj
 0002:00007d84       $unwind$?New@BufferUtil@@KAXAEBV?$FunctionCallbackInfo@VValue@v8@@@Nan@@@Z 0000000180019d84     bufferutil.obj
 0002:00007d8c       $unwind$?Merge@BufferUtil@@KAXAEBV?$FunctionCallbackInfo@VValue@v8@@@Nan@@@Z 0000000180019d8c     bufferutil.obj
 0002:00007d94       $chain$6$?Merge@BufferUtil@@KAXAEBV?$FunctionCallbackInfo@VValue@v8@@@Nan@@@Z 0000000180019d94     bufferutil.obj
 0002:00007dc0       $chain$7$?Merge@BufferUtil@@KAXAEBV?$FunctionCallbackInfo@VValue@v8@@@Nan@@@Z 0000000180019dc0     bufferutil.obj
 0002:00007dd4       $chain$8$?Merge@BufferUtil@@KAXAEBV?$FunctionCallbackInfo@VValue@v8@@@Nan@@@Z 0000000180019dd4     bufferutil.obj
 0002:00007de4       $chain$9$?Merge@BufferUtil@@KAXAEBV?$FunctionCallbackInfo@VValue@v8@@@Nan@@@Z 0000000180019de4     bufferutil.obj
 0002:00007df4       $unwind$?Unmask@BufferUtil@@KAXAEBV?$FunctionCallbackInfo@VValue@v8@@@Nan@@@Z 0000000180019df4     bufferutil.obj
 0002:00007e08       $unwind$?Mask@BufferUtil@@KAXAEBV?$FunctionCallbackInfo@VValue@v8@@@Nan@@@Z 0000000180019e08     bufferutil.obj
 0002:00007e1c       $unwind$?init@@YAXV?$Local@VObject@v8@@@v8@@@Z 0000000180019e1c     bufferutil.obj
 0002:00007e24       $unwind$?erase@?$_Tree@V?$_Tmap_traits@P6AXAEBV?$FunctionCallbackInfo@VValue@v8@@@Nan@@@ZPEAUFunctionWrapper@imp@2@U?$less@P6AXAEBV?$FunctionCallbackInfo@VValue@v8@@@Nan@@@Z@std@@V?$allocator@U?$pair@Q6AXAEBV?$FunctionCallbackInfo@VValue@v8@@@Nan@@@ZPEAUFunctionWrapper@imp@2@@std@@@6@$0A@@std@@@std@@QEAA?AV?$_Tree_iterator@V?$_Tree_val@U?$_Tree_simple_types@U?$pair@Q6AXAEBV?$FunctionCallbackInfo@VValue@v8@@@Nan@@@ZPEAUFunctionWrapper@imp@2@@std@@@std@@@std@@@2@V?$_Tree_const_iterator@V?$_Tree_val@U?$_Tree_simple_types@U?$pair@Q6AXAEBV?$FunctionCallbackInfo@VValue@v8@@@Nan@@@ZPEAUFunctionWrapper@imp@2@@std@@@std@@@std@@@2@0@Z 0000000180019e24     bufferutil.obj
 0002:00007e30       $chain$0$?erase@?$_Tree@V?$_Tmap_traits@P6AXAEBV?$FunctionCallbackInfo@VValue@v8@@@Nan@@@ZPEAUFunctionWrapper@imp@2@U?$less@P6AXAEBV?$FunctionCallbackInfo@VValue@v8@@@Nan@@@Z@std@@V?$allocator@U?$pair@Q6AXAEBV?$FunctionCallbackInfo@VValue@v8@@@Nan@@@ZPEAUFunctionWrapper@imp@2@@std@@@6@$0A@@std@@@std@@QEAA?AV?$_Tree_iterator@V?$_Tree_val@U?$_Tree_simple_types@U?$pair@Q6AXAEBV?$FunctionCallbackInfo@VValue@v8@@@Nan@@@ZPEAUFunctionWrapper@imp@2@@std@@@std@@@std@@@2@V?$_Tree_const_iterator@V?$_Tree_val@U?$_Tree_simple_types@U?$pair@Q6AXAEBV?$FunctionCallbackInfo@VValue@v8@@@Nan@@@ZPEAUFunctionWrapper@imp@2@@std@@@std@@@std@@@2@0@Z 0000000180019e30     bufferutil.obj
 0002:00007e44       $chain$1$?erase@?$_Tree@V?$_Tmap_traits@P6AXAEBV?$FunctionCallbackInfo@VValue@v8@@@Nan@@@ZPEAUFunctionWrapper@imp@2@U?$less@P6AXAEBV?$FunctionCallbackInfo@VValue@v8@@@Nan@@@Z@std@@V?$allocator@U?$pair@Q6AXAEBV?$FunctionCallbackInfo@VValue@v8@@@Nan@@@ZPEAUFunctionWrapper@imp@2@@std@@@6@$0A@@std@@@std@@QEAA?AV?$_Tree_iterator@V?$_Tree_val@U?$_Tree_simple_types@U?$pair@Q6AXAEBV?$FunctionCallbackInfo@VValue@v8@@@Nan@@@ZPEAUFunctionWrapper@imp@2@@std@@@std@@@std@@@2@V?$_Tree_const_iterator@V?$_Tree_val@U?$_Tree_simple_types@U?$pair@Q6AXAEBV?$FunctionCallbackInfo@VValue@v8@@@Nan@@@ZPEAUFunctionWrapper@imp@2@@std@@@std@@@std@@@2@0@Z 0000000180019e44     bufferutil.obj
 0002:00007e54       $unwind$?erase@?$_Tree@V?$_Tmap_traits@P6AXAEBV?$FunctionCallbackInfo@VValue@v8@@@Nan@@@ZPEAUFunctionWrapper@imp@2@U?$less@P6AXAEBV?$FunctionCallbackInfo@VValue@v8@@@Nan@@@Z@std@@V?$allocator@U?$pair@Q6AXAEBV?$FunctionCallbackInfo@VValue@v8@@@Nan@@@ZPEAUFunctionWrapper@imp@2@@std@@@6@$0A@@std@@@std@@QEAA?AV?$_Tree_iterator@V?$_Tree_val@U?$_Tree_simple_types@U?$pair@Q6AXAEBV?$FunctionCallbackInfo@VValue@v8@@@Nan@@@ZPEAUFunctionWrapper@imp@2@@std@@@std@@@std@@@2@V?$_Tree_const_iterator@V?$_Tree_val@U?$_Tree_simple_types@U?$pair@Q6AXAEBV?$FunctionCallbackInfo@VValue@v8@@@Nan@@@ZPEAUFunctionWrapper@imp@2@@std@@@std@@@std@@@2@@Z 0000000180019e54     bufferutil.obj
 0002:00007e60       $chain$2$?erase@?$_Tree@V?$_Tmap_traits@P6AXAEBV?$FunctionCallbackInfo@VValue@v8@@@Nan@@@ZPEAUFunctionWrapper@imp@2@U?$less@P6AXAEBV?$FunctionCallbackInfo@VValue@v8@@@Nan@@@Z@std@@V?$allocator@U?$pair@Q6AXAEBV?$FunctionCallbackInfo@VValue@v8@@@Nan@@@ZPEAUFunctionWrapper@imp@2@@std@@@6@$0A@@std@@@std@@QEAA?AV?$_Tree_iterator@V?$_Tree_val@U?$_Tree_simple_types@U?$pair@Q6AXAEBV?$FunctionCallbackInfo@VValue@v8@@@Nan@@@ZPEAUFunctionWrapper@imp@2@@std@@@std@@@std@@@2@V?$_Tree_const_iterator@V?$_Tree_val@U?$_Tree_simple_types@U?$pair@Q6AXAEBV?$FunctionCallbackInfo@VValue@v8@@@Nan@@@ZPEAUFunctionWrapper@imp@2@@std@@@std@@@std@@@2@@Z 0000000180019e60     bufferutil.obj
 0002:00007e7c       $chain$3$?erase@?$_Tree@V?$_Tmap_traits@P6AXAEBV?$FunctionCallbackInfo@VValue@v8@@@Nan@@@ZPEAUFunctionWrapper@imp@2@U?$less@P6AXAEBV?$FunctionCallbackInfo@VValue@v8@@@Nan@@@Z@std@@V?$allocator@U?$pair@Q6AXAEBV?$FunctionCallbackInfo@VValue@v8@@@Nan@@@ZPEAUFunctionWrapper@imp@2@@std@@@6@$0A@@std@@@std@@QEAA?AV?$_Tree_iterator@V?$_Tree_val@U?$_Tree_simple_types@U?$pair@Q6AXAEBV?$FunctionCallbackInfo@VValue@v8@@@Nan@@@ZPEAUFunctionWrapper@imp@2@@std@@@std@@@std@@@2@V?$_Tree_const_iterator@V?$_Tree_val@U?$_Tree_simple_types@U?$pair@Q6AXAEBV?$FunctionCallbackInfo@VValue@v8@@@Nan@@@ZPEAUFunctionWrapper@imp@2@@std@@@std@@@std@@@2@@Z 0000000180019e7c     bufferutil.obj
 0002:00007e8c       $unwind$??$GetWrapper@P6AXAEBV?$FunctionCallbackInfo@VValue@v8@@@Nan@@@ZUFunctionWrapper@imp@2@@imp@Nan@@YAPEAUFunctionWrapper@01@P6AXAEBV?$FunctionCallbackInfo@VValue@v8@@@1@@Z@Z 0000000180019e8c     bufferutil.obj
 0002:00007e94       $chain$1$??$GetWrapper@P6AXAEBV?$FunctionCallbackInfo@VValue@v8@@@Nan@@@ZUFunctionWrapper@imp@2@@imp@Nan@@YAPEAUFunctionWrapper@01@P6AXAEBV?$FunctionCallbackInfo@VValue@v8@@@1@@Z@Z 0000000180019e94     bufferutil.obj
 0002:00007eac       $chain$3$??$GetWrapper@P6AXAEBV?$FunctionCallbackInfo@VValue@v8@@@Nan@@@ZUFunctionWrapper@imp@2@@imp@Nan@@YAPEAUFunctionWrapper@01@P6AXAEBV?$FunctionCallbackInfo@VValue@v8@@@1@@Z@Z 0000000180019eac     bufferutil.obj
 0002:00007ec0       $chain$4$??$GetWrapper@P6AXAEBV?$FunctionCallbackInfo@VValue@v8@@@Nan@@@ZUFunctionWrapper@imp@2@@imp@Nan@@YAPEAUFunctionWrapper@01@P6AXAEBV?$FunctionCallbackInfo@VValue@v8@@@1@@Z@Z 0000000180019ec0     bufferutil.obj
 0002:00007ed0       $chain$5$??$GetWrapper@P6AXAEBV?$FunctionCallbackInfo@VValue@v8@@@Nan@@@ZUFunctionWrapper@imp@2@@imp@Nan@@YAPEAUFunctionWrapper@01@P6AXAEBV?$FunctionCallbackInfo@VValue@v8@@@1@@Z@Z 0000000180019ed0     bufferutil.obj
 0002:00007ee8       $unwind$??$_Insert_hint@AEAU?$pair@Q6AXAEBV?$FunctionCallbackInfo@VValue@v8@@@Nan@@@ZPEAUFunctionWrapper@imp@2@@std@@PEAU?$_Tree_node@U?$pair@Q6AXAEBV?$FunctionCallbackInfo@VValue@v8@@@Nan@@@ZPEAUFunctionWrapper@imp@2@@std@@PEAX@2@@?$_Tree@V?$_Tmap_traits@P6AXAEBV?$FunctionCallbackInfo@VValue@v8@@@Nan@@@ZPEAUFunctionWrapper@imp@2@U?$less@P6AXAEBV?$FunctionCallbackInfo@VValue@v8@@@Nan@@@Z@std@@V?$allocator@U?$pair@Q6AXAEBV?$FunctionCallbackInfo@VValue@v8@@@Nan@@@ZPEAUFunctionWrapper@imp@2@@std@@@6@$0A@@std@@@std@@IEAA?AV?$_Tree_iterator@V?$_Tree_val@U?$_Tree_simple_types@U?$pair@Q6AXAEBV?$FunctionCallbackInfo@VValue@v8@@@Nan@@@ZPEAUFunctionWrapper@imp@2@@std@@@std@@@std@@@1@V?$_Tree_const_iterator@V?$_Tree_val@U?$_Tree_simple_types@U?$pair@Q6AXAEBV?$FunctionCallbackInfo@VValue@v8@@@Nan@@@ZPEAUFunctionWrapper@imp@2@@std@@@std@@@std@@@1@AEAU?$pair@Q6AXAEBV?$FunctionCallbackInfo@VValue@v8@@@Nan@@@ZPEAUFunctionWrapper@imp@2@@1@PEAU?$_Tree_node@U?$pair@Q6AXAEBV?$FunctionCallbackInfo@VValue@v8@@@Nan@@@ZPEAUFunctionWrapper@imp@2@@std@@PEAX@1@@Z 0000000180019ee8     bufferutil.obj
 0002:00007efc       $unwind$??$_Insert_nohint@AEAU?$pair@Q6AXAEBV?$FunctionCallbackInfo@VValue@v8@@@Nan@@@ZPEAUFunctionWrapper@imp@2@@std@@PEAU?$_Tree_node@U?$pair@Q6AXAEBV?$FunctionCallbackInfo@VValue@v8@@@Nan@@@ZPEAUFunctionWrapper@imp@2@@std@@PEAX@2@@?$_Tree@V?$_Tmap_traits@P6AXAEBV?$FunctionCallbackInfo@VValue@v8@@@Nan@@@ZPEAUFunctionWrapper@imp@2@U?$less@P6AXAEBV?$FunctionCallbackInfo@VValue@v8@@@Nan@@@Z@std@@V?$allocator@U?$pair@Q6AXAEBV?$FunctionCallbackInfo@VValue@v8@@@Nan@@@ZPEAUFunctionWrapper@imp@2@@std@@@6@$0A@@std@@@std@@IEAA?AU?$pair@V?$_Tree_iterator@V?$_Tree_val@U?$_Tree_simple_types@U?$pair@Q6AXAEBV?$FunctionCallbackInfo@VValue@v8@@@Nan@@@ZPEAUFunctionWrapper@imp@2@@std@@@std@@@std@@@std@@_N@1@_NAEAU?$pair@Q6AXAEBV?$FunctionCallbackInfo@VValue@v8@@@Nan@@@ZPEAUFunctionWrapper@imp@2@@1@PEAU?$_Tree_node@U?$pair@Q6AXAEBV?$FunctionCallbackInfo@VValue@v8@@@Nan@@@ZPEAUFunctionWrapper@imp@2@@std@@PEAX@1@@Z 0000000180019efc     bufferutil.obj
 0002:00007f08       xdata                      0000000180019f08     node:node.exe
 0002:00007f10       $unwind$?_Xlength_error@std@@YAXPEBD@Z 0000000180019f10     libcpmt:xthrow.obj
 0002:00007f10       $unwind$?_Xbad_alloc@std@@YAXXZ 0000000180019f10     libcpmt:xthrow.obj
 0002:00007f10       $unwind$__initconout       0000000180019f10     libcpmt:xthrow.obj
 0002:00007f10       $unwind$_cfltcvt           0000000180019f10     libcpmt:xthrow.obj
 0002:00007f18       $xdatasym                  0000000180019f18     LIBCMT:amdsecgs.obj
 0002:00007f20       $xdatasym                  0000000180019f20     LIBCMT:memcpy.obj
 0002:00007f24       $unwind$swprintf           0000000180019f24     LIBCMT:wassert.obj
 0002:00007f2c       $unwind$_wassert           0000000180019f2c     LIBCMT:wassert.obj
 0002:00007f50       $unwind$_onexit            0000000180019f50     LIBCMT:onexit.obj
 0002:00007f80       $unwind$_CRT_INIT          0000000180019f80     LIBCMT:dllcrt0.obj
 0002:00007fa0       $unwind$__DllMainCRTStartup 0000000180019fa0     LIBCMT:dllcrt0.obj
 0002:00007fc8       $xdatasym                  0000000180019fc8     LIBCMT:strlen.obj
 0002:00007fcc       $unwind$_CxxThrowException 0000000180019fcc     LIBCMT:throw.obj
 0002:00007fdc       $unwind$?_Copy_str@exception@std@@AEAAXPEBD@Z 0000000180019fdc     LIBCMT:stdexcpt.obj
 0002:00007fec       $unwind$__isa_available_init 0000000180019fec     LIBCMT:cpu_disp.obj
 0002:00008000       $unwind$_call_reportfault  000000018001a000     LIBCMT:invarg.obj
 0002:00008020       $unwind$_invalid_parameter 000000018001a020     LIBCMT:invarg.obj
 0002:00008020       $unwind$_setenvp           000000018001a020     LIBCMT:invarg.obj
 0002:00008034       $unwind$doexit             000000018001a034     LIBCMT:crt0dat.obj
 0002:00008064       $unwind$fflush             000000018001a064     LIBCMT:fflush.obj
 0002:00008088       $unwind$flsall             000000018001a088     LIBCMT:fflush.obj
 0002:000080c8       $unwind$setvbuf            000000018001a0c8     LIBCMT:setvbuf.obj
 0002:000080f4       $unwind$_initptd$fin$0     000000018001a0f4     LIBCMT:setvbuf.obj
 0002:000080f4       $unwind$_locterm$fin$0     000000018001a0f4     LIBCMT:setvbuf.obj
 0002:000080f4       $unwind$raise$fin$0        000000018001a0f4     LIBCMT:setvbuf.obj
 0002:000080f4       $unwind$_IsNonwritableInCurrentImage$filt$0 000000018001a0f4     LIBCMT:setvbuf.obj
 0002:000080f4       $unwind$_onexit$fin$0      000000018001a0f4     LIBCMT:setvbuf.obj
 0002:000080f4       $unwind$doexit$fin$0       000000018001a0f4     LIBCMT:setvbuf.obj
 0002:000080f4       $unwind$_initptd$fin$1     000000018001a0f4     LIBCMT:setvbuf.obj
 0002:000080f4       $unwind$fflush$fin$0       000000018001a0f4     LIBCMT:setvbuf.obj
 0002:000080f4       $unwind$__updatetlocinfo$fin$0 000000018001a0f4     LIBCMT:setvbuf.obj
 0002:000080f4       $unwind$?fin$0@?0??_Type_info_dtor@type_info@@CAXPEAV1@@Z@4HA 000000018001a0f4     LIBCMT:setvbuf.obj
 0002:000080f4       $unwind$_write$fin$0       000000018001a0f4     LIBCMT:setvbuf.obj
 0002:000080f4       $unwind$__lock_fhandle$fin$0 000000018001a0f4     LIBCMT:setvbuf.obj
 0002:000080f4       $unwind$_fcloseall$fin$0   000000018001a0f4     LIBCMT:setvbuf.obj
 0002:000080f4       $unwind$_setmbcp$fin$0     000000018001a0f4     LIBCMT:setvbuf.obj
 0002:000080f4       $unwind$__DestructExceptionObject$filt$0 000000018001a0f4     LIBCMT:setvbuf.obj
 0002:000080f4       $unwind$_freefls$fin$0     000000018001a0f4     LIBCMT:setvbuf.obj
 0002:000080f4       $unwind$fclose$fin$0       000000018001a0f4     LIBCMT:setvbuf.obj
 0002:000080f4       $unwind$flsall$fin$0       000000018001a0f4     LIBCMT:setvbuf.obj
 0002:000080f4       $unwind$_freefls$fin$1     000000018001a0f4     LIBCMT:setvbuf.obj
 0002:000080f4       $unwind$flsall$fin$1       000000018001a0f4     LIBCMT:setvbuf.obj
 0002:000080f4       $unwind$_close$fin$0       000000018001a0f4     LIBCMT:setvbuf.obj
 0002:000080f4       $unwind$_lseeki64$fin$0    000000018001a0f4     LIBCMT:setvbuf.obj
 0002:000080f4       $unwind$_ioinit$fin$0      000000018001a0f4     LIBCMT:setvbuf.obj
 0002:000080f4       $unwind$fwprintf$fin$0     000000018001a0f4     LIBCMT:setvbuf.obj
 0002:000080f4       $unwind$_CRT_INIT$fin$0    000000018001a0f4     LIBCMT:setvbuf.obj
 0002:000080f4       $unwind$_mtinitlocknum$fin$0 000000018001a0f4     LIBCMT:setvbuf.obj
 0002:000080f4       $unwind$__DllMainCRTStartup$filt$0 000000018001a0f4     LIBCMT:setvbuf.obj
 0002:000080f4       $unwind$__updatetmbcinfo$fin$0 000000018001a0f4     LIBCMT:setvbuf.obj
 0002:000080f4       $unwind$_commit$fin$0      000000018001a0f4     LIBCMT:setvbuf.obj
 0002:000080f4       $unwind$setvbuf$fin$0      000000018001a0f4     LIBCMT:setvbuf.obj
 0002:000080fc       $unwind$fwprintf           000000018001a0fc     LIBCMT:fwprintf.obj
 0002:00008120       $unwind$_cfltcvt_l         000000018001a120     LIBCMT:vswprnc.obj
 0002:00008120       $unwind$wctomb_s           000000018001a120     LIBCMT:vswprnc.obj
 0002:00008120       $unwind$_vswprintf_c_l     000000018001a120     LIBCMT:vswprnc.obj
 0002:00008120       $unwind$_invalid_parameter_noinfo 000000018001a120     LIBCMT:vswprnc.obj
 0002:00008120       $unwind$_itow_s            000000018001a120     LIBCMT:vswprnc.obj
 0002:00008128       $unwind$_vswprintf_helper  000000018001a128     LIBCMT:vswprnc.obj
 0002:00008140       $unwind$raise              000000018001a140     LIBCMT:winsig.obj
 0002:00008170       $unwind$__crtMessageBoxW   000000018001a170     LIBCMT:crtmboxw.obj
 0002:0000818c       $unwind$_NMSG_WRITE        000000018001a18c     LIBCMT:crt0msg.obj
 0002:000081b0       $unwind$__C_specific_handler 000000018001a1b0     LIBCMT:chandler.obj
 0002:000081cc       $unwind$__updatetlocinfo   000000018001a1cc     LIBCMT:localref.obj
 0002:000081ec       $unwind$__updatetmbcinfo   000000018001a1ec     LIBCMT:mbctype.obj
 0002:00008210       $unwind$_setmbcp           000000018001a210     LIBCMT:mbctype.obj
 0002:00008240       $unwind$_setmbcp_nolock    000000018001a240     LIBCMT:mbctype.obj
 0002:00008260       $unwind$?setSBUpLow@@YAXPEAUthreadmbcinfostruct@@@Z 000000018001a260     LIBCMT:mbctype.obj
 0002:0000827c       $unwind$_tolower_l         000000018001a27c     LIBCMT:tolower.obj
 0002:0000828c       $unwind$_freefls           000000018001a28c     LIBCMT:tidtable.obj
 0002:000082c0       $unwind$_initptd           000000018001a2c0     LIBCMT:tidtable.obj
 0002:000082f4       $unwind$_locterm           000000018001a2f4     LIBCMT:wsetloca.obj
 0002:00008314       $unwind$_XcptFilter        000000018001a314     LIBCMT:winxfltr.obj
 0002:00008314       $unwind$_initterm          000000018001a314     LIBCMT:winxfltr.obj
 0002:00008314       $unwind$?setSBCS@@YAXPEAUthreadmbcinfostruct@@@Z 000000018001a314     LIBCMT:winxfltr.obj
 0002:00008314       $unwind$xtow_s             000000018001a314     LIBCMT:winxfltr.obj
 0002:00008314       $unwind$__freetlocinfo     000000018001a314     LIBCMT:winxfltr.obj
 0002:00008314       $unwind$_mtdeletelocks     000000018001a314     LIBCMT:winxfltr.obj
 0002:00008328       $unwind$_ioinit            000000018001a328     LIBCMT:ioinit.obj
 0002:00008370       $unwind$_setargv           000000018001a370     LIBCMT:stdargv.obj
 0002:00008380       $unwind$parse_cmdline      000000018001a380     LIBCMT:stdargv.obj
 0002:0000839c       $unwind$__security_init_cookie 000000018001a39c     LIBCMT:gs_support.obj
 0002:000083a8       $unwind$__crtCaptureCurrentContext 000000018001a3a8     LIBCMT:winapisupp.obj
 0002:000083b4       $unwind$__crtCapturePreviousContext 000000018001a3b4     LIBCMT:winapisupp.obj
 0002:000083c0       $unwind$__DestructExceptionObject 000000018001a3c0     LIBCMT:frame.obj
 0002:000083e0       $unwind$?terminate@@YAXXZ  000000018001a3e0     LIBCMT:hooks.obj
 0002:00008400       $xdatasym                  000000018001a400     LIBCMT:strcmp.obj
 0002:00008404       $unwind$?_Type_info_dtor@type_info@@CAXPEAV1@@Z 000000018001a404     LIBCMT:typname.obj
 0002:00008424       $unwind$_cftoe2_l          000000018001a424     LIBCMT:cvt.obj
 0002:00008440       $unwind$_cftoe_l           000000018001a440     LIBCMT:cvt.obj
 0002:00008458       $unwind$_cftoa_l           000000018001a458     LIBCMT:cvt.obj
 0002:00008474       $unwind$_cftof2_l          000000018001a474     LIBCMT:cvt.obj
 0002:00008474       $unwind$__crtGetEnvironmentStringsA 000000018001a474     LIBCMT:cvt.obj
 0002:0000848c       $unwind$_cftof_l           000000018001a48c     LIBCMT:cvt.obj
 0002:000084a4       $unwind$_cftog_l           000000018001a4a4     LIBCMT:cvt.obj
 0002:000084c0       $xdatasym                  000000018001a4c0     LIBCMT:memset.obj
 0002:000084c4       $unwind$_mtinitlocknum     000000018001a4c4     LIBCMT:mlock.obj
 0002:000084ec       $unwind$_IsNonwritableInCurrentImage 000000018001a4ec     LIBCMT:pesect.obj
 0002:00008510       $unwind$_ftbuf             000000018001a510     LIBCMT:_sftbuf.obj
 0002:00008518       $unwind$_fcloseall         000000018001a518     LIBCMT:closeall.obj
 0002:00008540       $unwind$_commit            000000018001a540     LIBCMT:commit.obj
 0002:00008568       $unwind$_write             000000018001a568     LIBCMT:write.obj
 0002:00008594       $unwind$_write_nolock      000000018001a594     LIBCMT:write.obj
 0002:000085b8       $unwind$_woutput_l         000000018001a5b8     LIBCMT:woutput.obj
 0002:000085dc       $unwind$write_multi_char   000000018001a5dc     LIBCMT:woutput.obj
 0002:000085f0       $unwind$write_string       000000018001a5f0     LIBCMT:woutput.obj
 0002:00008608       $unwind$_flsbuf            000000018001a608     LIBCMT:_flsbuf.obj
 0002:00008620       $xdatasym                  000000018001a620     LIBCMT:jmpuwind.obj
 0002:00008634       $unwind$__crtLCMapStringEx 000000018001a634     LIBCMT:winapinls.obj
 0002:00008644       $unwind$GetTableIndexFromLocaleName 000000018001a644     LIBCMT:winapinls.obj
 0002:00008644       $unwind$_realloc_crt       000000018001a644     LIBCMT:winapinls.obj
 0002:00008644       $unwind$_malloc_crt        000000018001a644     LIBCMT:winapinls.obj
 0002:00008644       $unwind$_calloc_crt        000000018001a644     LIBCMT:winapinls.obj
 0002:00008660       $xdatasym                  000000018001a660     LIBCMT:fpsr.obj
 0002:00008668       $unwind$__free_lconv_mon   000000018001a668     LIBCMT:initmon.obj
 0002:00008668       $unwind$__free_lc_time     000000018001a668     LIBCMT:initmon.obj
 0002:00008670       $unwind$__crtLCMapStringA  000000018001a670     LIBCMT:a_map.obj
 0002:00008680       $unwind$?__crtLCMapStringA_stat@@YAHPEAUlocaleinfo_struct@@PEB_WKPEBDHPEADHHH@Z 000000018001a680     LIBCMT:a_map.obj
 0002:000086a8       $unwind$__crtGetStringTypeA 000000018001a6a8     LIBCMT:a_str.obj
 0002:000086b8       $unwind$?__crtGetStringTypeA_stat@@YAHPEAUlocaleinfo_struct@@KPEBDHPEAGHH@Z 000000018001a6b8     LIBCMT:a_str.obj
 0002:000086e0       $unwind$_isctype_l         000000018001a6e0     LIBCMT:isctype.obj
 0002:000086f0       $xdatasym                  000000018001a6f0     LIBCMT:memcmp.obj
 0002:000086f8       $xdatasym                  000000018001a6f8     LIBCMT:handlers.obj
 0002:00008700       $unwind$strrchr            000000018001a700     LIBCMT:strrchr.obj
 0002:00008708       $unwind$_atodbl_l          000000018001a708     LIBCMT:atodbl.obj
 0002:0000871c       $unwind$__crt_atoflt_l     000000018001a71c     LIBCMT:atodbl.obj
 0002:00008730       $unwind$_fltout2           000000018001a730     LIBCMT:cfout.obj
 0002:00008748       $unwind$__dtold            000000018001a748     LIBCMT:cfout.obj
 0002:00008750       $unwind$fclose             000000018001a750     LIBCMT:fclose.obj
 0002:00008774       $unwind$_stbuf             000000018001a774     LIBCMT:osfinfo.obj
 0002:00008774       $unwind$_free_osfhnd       000000018001a774     LIBCMT:osfinfo.obj
 0002:00008784       $unwind$__lock_fhandle     000000018001a784     LIBCMT:osfinfo.obj
 0002:000087b0       $unwind$_lseeki64          000000018001a7b0     LIBCMT:lseeki64.obj
 0002:000087dc       $unwind$_mbtowc_l          000000018001a7dc     LIBCMT:mbtowc.obj
 0002:000087f4       $unwind$__report_gsfailure 000000018001a7f4     LIBCMT:putwch.obj
 0002:000087f4       $unwind$_putwch_nolock     000000018001a7f4     LIBCMT:putwch.obj
 0002:00008800       $xdatasym                  000000018001a800     LIBCMT:chkstk.obj
 0002:00008808       $unwind$_fputwc_nolock     000000018001a808     LIBCMT:fputwc.obj
 0002:00008824       $unwind$_ld12tof           000000018001a824     LIBCMT:intrncvt.obj
 0002:00008824       $unwind$_ld12tod           000000018001a824     LIBCMT:intrncvt.obj
 0002:00008848       $unwind$__strgtold12_l     000000018001a848     LIBCMT:strgtold.obj
 0002:0000886c       $unwind$$I10_OUTPUT        000000018001a86c     LIBCMT:x10fout.obj
 0002:00008890       $unwind$_close             000000018001a890     LIBCMT:close.obj
 0002:000088b8       $unwind$_wctomb_s_l        000000018001a8b8     LIBCMT:wctomb.obj
 0002:000088c8       $unwind$_flswbuf           000000018001a8c8     LIBCMT:_flswbuf.obj
 0002:000088dc       $unwind$__mtold12          000000018001a8dc     LIBCMT:mantold.obj
 0002:000088f4       $unwind$__delayLoadHelper2 000000018001a8f4     DelayImp:delayhlp.obj
 0002:0000a1e0       .edata                     000000018001c1e0     bufferutil.exp
 0002:0000a208       rgpv                       000000018001c208     bufferutil.exp
 0002:0000a60c       rgszName                   000000018001c60c     bufferutil.exp
 0002:0000aa10       rgwOrd                     000000018001ca10     bufferutil.exp
 0002:0000ac12       szName                     000000018001cc12     bufferutil.exp
 0002:0000ac22       $N00001                    000000018001cc22     bufferutil.exp
 0002:0000ac4f       $N00002                    000000018001cc4f     bufferutil.exp
 0002:0000ac74       $N00003                    000000018001cc74     bufferutil.exp
 0002:0000ac9d       $N00004                    000000018001cc9d     bufferutil.exp
 0002:0000acc1       $N00005                    000000018001ccc1     bufferutil.exp
 0002:0000aceb       $N00006                    000000018001cceb     bufferutil.exp
 0002:0000ad19       $N00007                    000000018001cd19     bufferutil.exp
 0002:0000ad3f       $N00008                    000000018001cd3f     bufferutil.exp
 0002:0000ad73       $N00009                    000000018001cd73     bufferutil.exp
 0002:0000adaa       $N00010                    000000018001cdaa     bufferutil.exp
 0002:0000addb       $N00011                    000000018001cddb     bufferutil.exp
 0002:0000ae09       $N00012                    000000018001ce09     bufferutil.exp
 0002:0000ae30       $N00013                    000000018001ce30     bufferutil.exp
 0002:0000ae6b       $N00014                    000000018001ce6b     bufferutil.exp
 0002:0000ae9e       $N00015                    000000018001ce9e     bufferutil.exp
 0002:0000aecb       $N00016                    000000018001cecb     bufferutil.exp
 0002:0000aefc       $N00017                    000000018001cefc     bufferutil.exp
 0002:0000af17       $N00018                    000000018001cf17     bufferutil.exp
 0002:0000af3b       $N00019                    000000018001cf3b     bufferutil.exp
 0002:0000af69       $N00020                    000000018001cf69     bufferutil.exp
 0002:0000af90       $N00021                    000000018001cf90     bufferutil.exp
 0002:0000afb4       $N00022                    000000018001cfb4     bufferutil.exp
 0002:0000afda       $N00023                    000000018001cfda     bufferutil.exp
 0002:0000afff       $N00024                    000000018001cfff     bufferutil.exp
 0002:0000b023       $N00025                    000000018001d023     bufferutil.exp
 0002:0000b03c       $N00026                    000000018001d03c     bufferutil.exp
 0002:0000b070       $N00027                    000000018001d070     bufferutil.exp
 0002:0000b0a1       $N00028                    000000018001d0a1     bufferutil.exp
 0002:0000b0c8       $N00029                    000000018001d0c8     bufferutil.exp
 0002:0000b0fb       $N00030                    000000018001d0fb     bufferutil.exp
 0002:0000b128       $N00031                    000000018001d128     bufferutil.exp
 0002:0000b159       $N00032                    000000018001d159     bufferutil.exp
 0002:0000b180       $N00033                    000000018001d180     bufferutil.exp
 0002:0000b19d       $N00034                    000000018001d19d     bufferutil.exp
 0002:0000b1cb       $N00035                    000000018001d1cb     bufferutil.exp
 0002:0000b1ff       $N00036                    000000018001d1ff     bufferutil.exp
 0002:0000b221       $N00037                    000000018001d221     bufferutil.exp
 0002:0000b249       $N00038                    000000018001d249     bufferutil.exp
 0002:0000b275       $N00039                    000000018001d275     bufferutil.exp
 0002:0000b299       $N00040                    000000018001d299     bufferutil.exp
 0002:0000b2c3       $N00041                    000000018001d2c3     bufferutil.exp
 0002:0000b2f6       $N00042                    000000018001d2f6     bufferutil.exp
 0002:0000b32f       $N00043                    000000018001d32f     bufferutil.exp
 0002:0000b353       $N00044                    000000018001d353     bufferutil.exp
 0002:0000b374       $N00045                    000000018001d374     bufferutil.exp
 0002:0000b399       $N00046                    000000018001d399     bufferutil.exp
 0002:0000b3ba       $N00047                    000000018001d3ba     bufferutil.exp
 0002:0000b3e0       $N00048                    000000018001d3e0     bufferutil.exp
 0002:0000b405       $N00049                    000000018001d405     bufferutil.exp
 0002:0000b439       $N00050                    000000018001d439     bufferutil.exp
 0002:0000b47b       $N00051                    000000018001d47b     bufferutil.exp
 0002:0000b4a4       $N00052                    000000018001d4a4     bufferutil.exp
 0002:0000b4cd       $N00053                    000000018001d4cd     bufferutil.exp
 0002:0000b4f2       $N00054                    000000018001d4f2     bufferutil.exp
 0002:0000b51f       $N00055                    000000018001d51f     bufferutil.exp
 0002:0000b550       $N00056                    000000018001d550     bufferutil.exp
 0002:0000b580       $N00057                    000000018001d580     bufferutil.exp
 0002:0000b5ab       $N00058                    000000018001d5ab     bufferutil.exp
 0002:0000b5d2       $N00059                    000000018001d5d2     bufferutil.exp
 0002:0000b5f4       $N00060                    000000018001d5f4     bufferutil.exp
 0002:0000b61b       $N00061                    000000018001d61b     bufferutil.exp
 0002:0000b641       $N00062                    000000018001d641     bufferutil.exp
 0002:0000b665       $N00063                    000000018001d665     bufferutil.exp
 0002:0000b686       $N00064                    000000018001d686     bufferutil.exp
 0002:0000b6a6       $N00065                    000000018001d6a6     bufferutil.exp
 0002:0000b6ca       $N00066                    000000018001d6ca     bufferutil.exp
 0002:0000b6eb       $N00067                    000000018001d6eb     bufferutil.exp
 0002:0000b715       $N00068                    000000018001d715     bufferutil.exp
 0002:0000b738       $N00069                    000000018001d738     bufferutil.exp
 0002:0000b761       $N00070                    000000018001d761     bufferutil.exp
 0002:0000b784       $N00071                    000000018001d784     bufferutil.exp
 0002:0000b7af       $N00072                    000000018001d7af     bufferutil.exp
 0002:0000b7e3       $N00073                    000000018001d7e3     bufferutil.exp
 0002:0000b809       $N00074                    000000018001d809     bufferutil.exp
 0002:0000b82d       $N00075                    000000018001d82d     bufferutil.exp
 0002:0000b850       $N00076                    000000018001d850     bufferutil.exp
 0002:0000b87f       $N00077                    000000018001d87f     bufferutil.exp
 0002:0000b8af       $N00078                    000000018001d8af     bufferutil.exp
 0002:0000b8d2       $N00079                    000000018001d8d2     bufferutil.exp
 0002:0000b8fd       $N00080                    000000018001d8fd     bufferutil.exp
 0002:0000b91d       $N00081                    000000018001d91d     bufferutil.exp
 0002:0000b94b       $N00082                    000000018001d94b     bufferutil.exp
 0002:0000b971       $N00083                    000000018001d971     bufferutil.exp
 0002:0000b998       $N00084                    000000018001d998     bufferutil.exp
 0002:0000b9bf       $N00085                    000000018001d9bf     bufferutil.exp
 0002:0000b9e7       $N00086                    000000018001d9e7     bufferutil.exp
 0002:0000ba0a       $N00087                    000000018001da0a     bufferutil.exp
 0002:0000ba33       $N00088                    000000018001da33     bufferutil.exp
 0002:0000ba56       $N00089                    000000018001da56     bufferutil.exp
 0002:0000ba7f       $N00090                    000000018001da7f     bufferutil.exp
 0002:0000baa4       $N00091                    000000018001daa4     bufferutil.exp
 0002:0000bacb       $N00092                    000000018001dacb     bufferutil.exp
 0002:0000baf2       $N00093                    000000018001daf2     bufferutil.exp
 0002:0000bb1a       $N00094                    000000018001db1a     bufferutil.exp
 0002:0000bb3d       $N00095                    000000018001db3d     bufferutil.exp
 0002:0000bb65       $N00096                    000000018001db65     bufferutil.exp
 0002:0000bb8c       $N00097                    000000018001db8c     bufferutil.exp
 0002:0000bbba       $N00098                    000000018001dbba     bufferutil.exp
 0002:0000bbe4       $N00099                    000000018001dbe4     bufferutil.exp
 0002:0000bc09       $N00100                    000000018001dc09     bufferutil.exp
 0002:0000bc28       $N00101                    000000018001dc28     bufferutil.exp
 0002:0000bc4a       $N00102                    000000018001dc4a     bufferutil.exp
 0002:0000bc6d       $N00103                    000000018001dc6d     bufferutil.exp
 0002:0000bc90       $N00104                    000000018001dc90     bufferutil.exp
 0002:0000bcaf       $N00105                    000000018001dcaf     bufferutil.exp
 0002:0000bcce       $N00106                    000000018001dcce     bufferutil.exp
 0002:0000bcf0       $N00107                    000000018001dcf0     bufferutil.exp
 0002:0000bd06       $N00108                    000000018001dd06     bufferutil.exp
 0002:0000bd37       $N00109                    000000018001dd37     bufferutil.exp
 0002:0000bd65       $N00110                    000000018001dd65     bufferutil.exp
 0002:0000bd89       $N00111                    000000018001dd89     bufferutil.exp
 0002:0000bdb9       $N00112                    000000018001ddb9     bufferutil.exp
 0002:0000bde3       $N00113                    000000018001dde3     bufferutil.exp
 0002:0000be11       $N00114                    000000018001de11     bufferutil.exp
 0002:0000be35       $N00115                    000000018001de35     bufferutil.exp
 0002:0000be8d       $N00116                    000000018001de8d     bufferutil.exp
 0002:0000bee6       $N00117                    000000018001dee6     bufferutil.exp
 0002:0000bf24       $N00118                    000000018001df24     bufferutil.exp
 0002:0000bf52       $N00119                    000000018001df52     bufferutil.exp
 0002:0000bf86       $N00120                    000000018001df86     bufferutil.exp
 0002:0000bfbb       $N00121                    000000018001dfbb     bufferutil.exp
 0002:0000bfe3       $N00122                    000000018001dfe3     bufferutil.exp
 0002:0000c011       $N00123                    000000018001e011     bufferutil.exp
 0002:0000c043       $N00124                    000000018001e043     bufferutil.exp
 0002:0000c06d       $N00125                    000000018001e06d     bufferutil.exp
 0002:0000c09d       $N00126                    000000018001e09d     bufferutil.exp
 0002:0000c0c8       $N00127                    000000018001e0c8     bufferutil.exp
 0002:0000c0ef       $N00128                    000000018001e0ef     bufferutil.exp
 0002:0000c11a       $N00129                    000000018001e11a     bufferutil.exp
 0002:0000c149       $N00130                    000000018001e149     bufferutil.exp
 0002:0000c178       $N00131                    000000018001e178     bufferutil.exp
 0002:0000c1a3       $N00132                    000000018001e1a3     bufferutil.exp
 0002:0000c1d0       $N00133                    000000018001e1d0     bufferutil.exp
 0002:0000c1f8       $N00134                    000000018001e1f8     bufferutil.exp
 0002:0000c225       $N00135                    000000018001e225     bufferutil.exp
 0002:0000c251       $N00136                    000000018001e251     bufferutil.exp
 0002:0000c27b       $N00137                    000000018001e27b     bufferutil.exp
 0002:0000c2a1       $N00138                    000000018001e2a1     bufferutil.exp
 0002:0000c2c8       $N00139                    000000018001e2c8     bufferutil.exp
 0002:0000c2f1       $N00140                    000000018001e2f1     bufferutil.exp
 0002:0000c320       $N00141                    000000018001e320     bufferutil.exp
 0002:0000c349       $N00142                    000000018001e349     bufferutil.exp
 0002:0000c373       $N00143                    000000018001e373     bufferutil.exp
 0002:0000c39c       $N00144                    000000018001e39c     bufferutil.exp
 0002:0000c3d0       $N00145                    000000018001e3d0     bufferutil.exp
 0002:0000c3f6       $N00146                    000000018001e3f6     bufferutil.exp
 0002:0000c42a       $N00147                    000000018001e42a     bufferutil.exp
 0002:0000c453       $N00148                    000000018001e453     bufferutil.exp
 0002:0000c482       $N00149                    000000018001e482     bufferutil.exp
 0002:0000c4ab       $N00150                    000000018001e4ab     bufferutil.exp
 0002:0000c4da       $N00151                    000000018001e4da     bufferutil.exp
 0002:0000c507       $N00152                    000000018001e507     bufferutil.exp
 0002:0000c535       $N00153                    000000018001e535     bufferutil.exp
 0002:0000c55e       $N00154                    000000018001e55e     bufferutil.exp
 0002:0000c58c       $N00155                    000000018001e58c     bufferutil.exp
 0002:0000c5b9       $N00156                    000000018001e5b9     bufferutil.exp
 0002:0000c5ed       $N00157                    000000018001e5ed     bufferutil.exp
 0002:0000c617       $N00158                    000000018001e617     bufferutil.exp
 0002:0000c647       $N00159                    000000018001e647     bufferutil.exp
 0002:0000c67e       $N00160                    000000018001e67e     bufferutil.exp
 0002:0000c6bd       $N00161                    000000018001e6bd     bufferutil.exp
 0002:0000c6f8       $N00162                    000000018001e6f8     bufferutil.exp
 0002:0000c733       $N00163                    000000018001e733     bufferutil.exp
 0002:0000c790       $N00164                    000000018001e790     bufferutil.exp
 0002:0000c7b1       $N00165                    000000018001e7b1     bufferutil.exp
 0002:0000c7ef       $N00166                    000000018001e7ef     bufferutil.exp
 0002:0000c83a       $N00167                    000000018001e83a     bufferutil.exp
 0002:0000c89e       $N00168                    000000018001e89e     bufferutil.exp
 0002:0000c8dc       $N00169                    000000018001e8dc     bufferutil.exp
 0002:0000c90d       $N00170                    000000018001e90d     bufferutil.exp
 0002:0000c987       $N00171                    000000018001e987     bufferutil.exp
 0002:0000c9af       $N00172                    000000018001e9af     bufferutil.exp
 0002:0000c9f8       $N00173                    000000018001e9f8     bufferutil.exp
 0002:0000ca0e       $N00174                    000000018001ea0e     bufferutil.exp
 0002:0000ca42       $N00175                    000000018001ea42     bufferutil.exp
 0002:0000ca5d       $N00176                    000000018001ea5d     bufferutil.exp
 0002:0000ca7a       $N00177                    000000018001ea7a     bufferutil.exp
 0002:0000ca9a       $N00178                    000000018001ea9a     bufferutil.exp
 0002:0000cad1       $N00179                    000000018001ead1     bufferutil.exp
 0002:0000cb12       $N00180                    000000018001eb12     bufferutil.exp
 0002:0000cb6b       $N00181                    000000018001eb6b     bufferutil.exp
 0002:0000cb8b       $N00182                    000000018001eb8b     bufferutil.exp
 0002:0000cbad       $N00183                    000000018001ebad     bufferutil.exp
 0002:0000cbd2       $N00184                    000000018001ebd2     bufferutil.exp
 0002:0000cc1e       $N00185                    000000018001ec1e     bufferutil.exp
 0002:0000cc6a       $N00186                    000000018001ec6a     bufferutil.exp
 0002:0000ccc3       $N00187                    000000018001ecc3     bufferutil.exp
 0002:0000cd1e       $N00188                    000000018001ed1e     bufferutil.exp
 0002:0000cd60       $N00189                    000000018001ed60     bufferutil.exp
 0002:0000cdb8       $N00190                    000000018001edb8     bufferutil.exp
 0002:0000ce14       $N00191                    000000018001ee14     bufferutil.exp
 0002:0000ce36       $N00192                    000000018001ee36     bufferutil.exp
 0002:0000cead       $N00193                    000000018001eead     bufferutil.exp
 0002:0000cedb       $N00194                    000000018001eedb     bufferutil.exp
 0002:0000cff4       $N00195                    000000018001eff4     bufferutil.exp
 0002:0000d023       $N00196                    000000018001f023     bufferutil.exp
 0002:0000d05a       $N00197                    000000018001f05a     bufferutil.exp
 0002:0000d095       $N00198                    000000018001f095     bufferutil.exp
 0002:0000d0c8       $N00199                    000000018001f0c8     bufferutil.exp
 0002:0000d0ff       $N00200                    000000018001f0ff     bufferutil.exp
 0002:0000d134       $N00201                    000000018001f134     bufferutil.exp
 0002:0000d169       $N00202                    000000018001f169     bufferutil.exp
 0002:0000d19e       $N00203                    000000018001f19e     bufferutil.exp
 0002:0000d1d3       $N00204                    000000018001f1d3     bufferutil.exp
 0002:0000d216       $N00205                    000000018001f216     bufferutil.exp
 0002:0000d267       $N00206                    000000018001f267     bufferutil.exp
 0002:0000d2c2       $N00207                    000000018001f2c2     bufferutil.exp
 0002:0000d315       $N00208                    000000018001f315     bufferutil.exp
 0002:0000d35a       $N00209                    000000018001f35a     bufferutil.exp
 0002:0000d3e2       $N00210                    000000018001f3e2     bufferutil.exp
 0002:0000d406       $N00211                    000000018001f406     bufferutil.exp
 0002:0000d436       $N00212                    000000018001f436     bufferutil.exp
 0002:0000d468       $N00213                    000000018001f468     bufferutil.exp
 0002:0000d49f       $N00214                    000000018001f49f     bufferutil.exp
 0002:0000d4c9       $N00215                    000000018001f4c9     bufferutil.exp
 0002:0000d4f1       $N00216                    000000018001f4f1     bufferutil.exp
 0002:0000d51f       $N00217                    000000018001f51f     bufferutil.exp
 0002:0000d54c       $N00218                    000000018001f54c     bufferutil.exp
 0002:0000d58b       $N00219                    000000018001f58b     bufferutil.exp
 0002:0000d5b4       $N00220                    000000018001f5b4     bufferutil.exp
 0002:0000d5e1       $N00221                    000000018001f5e1     bufferutil.exp
 0002:0000d610       $N00222                    000000018001f610     bufferutil.exp
 0002:0000d62b       $N00223                    000000018001f62b     bufferutil.exp
 0002:0000d64a       $N00224                    000000018001f64a     bufferutil.exp
 0002:0000d66d       $N00225                    000000018001f66d     bufferutil.exp
 0002:0000d690       $N00226                    000000018001f690     bufferutil.exp
 0002:0000d6b1       $N00227                    000000018001f6b1     bufferutil.exp
 0002:0000d6e8       $N00228                    000000018001f6e8     bufferutil.exp
 0002:0000d70d       $N00229                    000000018001f70d     bufferutil.exp
 0002:0000d72e       $N00230                    000000018001f72e     bufferutil.exp
 0002:0000d763       $N00231                    000000018001f763     bufferutil.exp
 0002:0000d797       $N00232                    000000018001f797     bufferutil.exp
 0002:0000d7cc       $N00233                    000000018001f7cc     bufferutil.exp
 0002:0000d7eb       $N00234                    000000018001f7eb     bufferutil.exp
 0002:0000d81b       $N00235                    000000018001f81b     bufferutil.exp
 0002:0000d84a       $N00236                    000000018001f84a     bufferutil.exp
 0002:0000d87f       $N00237                    000000018001f87f     bufferutil.exp
 0002:0000d8b0       $N00238                    000000018001f8b0     bufferutil.exp
 0002:0000d8e6       $N00239                    000000018001f8e6     bufferutil.exp
 0002:0000d90f       $N00240                    000000018001f90f     bufferutil.exp
 0002:0000d946       $N00241                    000000018001f946     bufferutil.exp
 0002:0000d980       $N00242                    000000018001f980     bufferutil.exp
 0002:0000d9b9       $N00243                    000000018001f9b9     bufferutil.exp
 0002:0000d9f3       $N00244                    000000018001f9f3     bufferutil.exp
 0002:0000da28       $N00245                    000000018001fa28     bufferutil.exp
 0002:0000da70       $N00246                    000000018001fa70     bufferutil.exp
 0002:0000da96       $N00247                    000000018001fa96     bufferutil.exp
 0002:0000dacd       $N00248                    000000018001facd     bufferutil.exp
 0002:0000dafc       $N00249                    000000018001fafc     bufferutil.exp
 0002:0000db29       $N00250                    000000018001fb29     bufferutil.exp
 0002:0000db5b       $N00251                    000000018001fb5b     bufferutil.exp
 0002:0000db8b       $N00252                    000000018001fb8b     bufferutil.exp
 0002:0000dbbd       $N00253                    000000018001fbbd     bufferutil.exp
 0002:0000dbea       $N00254                    000000018001fbea     bufferutil.exp
 0002:0000dc22       $N00255                    000000018001fc22     bufferutil.exp
 0002:0000dc53       $N00256                    000000018001fc53     bufferutil.exp
 0002:0000dc7f       $N00257                    000000018001fc7f     bufferutil.exp
 0002:0000defc       .idata$6                   000000018001fefc     kernel32:KERNEL32.dll
 0003:00000000       _assertstring              0000000180021000     LIBCMT:wassert.obj
 0003:00000050       dotdotdot                  0000000180021050     LIBCMT:wassert.obj
 0003:00000058       newline                    0000000180021058     LIBCMT:wassert.obj
 0003:00000060       dblnewline                 0000000180021060     LIBCMT:wassert.obj
 0003:00000460       ?dazSupported@?1??_ctrlfp@@9@9 0000000180021460     LIBCMT:fpctrl.obj
 0003:000008a8       __rgctypeflag              00000001800218a8     LIBCMT:mbctype.obj
 0003:000008b0       __rgcode_page_info         00000001800218b0     LIBCMT:mbctype.obj
 0003:000009b0       errtable                   00000001800219b0     LIBCMT:dosmap.obj
 0003:00000b18       ErrnoNoMem                 0000000180021b18     LIBCMT:dosmap.obj
 0003:00000b1c       DoserrorNoMem              0000000180021b1c     LIBCMT:dosmap.obj
 0003:00000f60       _ctype_loc_style           0000000180021f60     LIBCMT:wsetloca.obj
 0003:00000fc8       ?isPackaged@?1??__crtIsPackagedApp@@9@9 0000000180021fc8     LIBCMT:winapisupp.obj
 0003:00001020       _locktable                 0000000180022020     LIBCMT:mlock.obj
 0003:00001260       ?_names@?1??_get_fname@@9@9 0000000180022260     LIBCMT:fpexcept.obj
 0003:00001538       DoubleFormat               0000000180022538     LIBCMT:intrncvt.obj
 0003:00001550       FloatFormat                0000000180022550     LIBCMT:intrncvt.obj
 0003:00001840       _module                    0000000180022840     bufferutil.obj
 0003:00001b88       allocator_arg              0000000180022b88     libcpmt:syserror.obj
 0003:00001b89       piecewise_construct        0000000180022b89     libcpmt:syserror.obj
 0003:00001b8a       _Tuple_alloc               0000000180022b8a     libcpmt:xthrow.obj
 0003:00001b8b       ignore                     0000000180022b8b     libcpmt:xthrow.obj
 0003:00001b8c       allocator_arg              0000000180022b8c     libcpmt:xthrow.obj
 0003:00001b8d       piecewise_construct        0000000180022b8d     libcpmt:xthrow.obj
 0003:00001b90       __proc_attached            0000000180022b90     LIBCMT:dllcrt0.obj
 0003:00001bb0       GS_ExceptionRecord         0000000180022bb0     LIBCMT:gs_report.obj
 0003:00001c50       GS_ContextRecord           0000000180022c50     LIBCMT:gs_report.obj
 0003:00002120       DebuggerWasPresent         0000000180023120     LIBCMT:gs_report.obj
 0003:00002190       ctrlc_action               0000000180023190     LIBCMT:winsig.obj
 0003:00002198       ctrlbreak_action           0000000180023198     LIBCMT:winsig.obj
 0003:000021a0       abort_action               00000001800231a0     LIBCMT:winsig.obj
 0003:000021a8       term_action                00000001800231a8     LIBCMT:winsig.obj
 0003:000021b0       ConsoleCtrlHandler_Installed 00000001800231b0     LIBCMT:winsig.obj
 0003:000021b8       ?pfnMessageBox@?1??__crtMessageBoxW@@9@9 00000001800231b8     LIBCMT:crtmboxw.obj
 0003:000021c0       ?pfnGetActiveWindow@?1??__crtMessageBoxW@@9@9 00000001800231c0     LIBCMT:crtmboxw.obj
 0003:000021c8       ?pfnGetLastActivePopup@?1??__crtMessageBoxW@@9@9 00000001800231c8     LIBCMT:crtmboxw.obj
 0003:000021d0       ?pfnGetProcessWindowStation@?1??__crtMessageBoxW@@9@9 00000001800231d0     LIBCMT:crtmboxw.obj
 0003:000021d8       ?pfnGetUserObjectInformation@?1??__crtMessageBoxW@@9@9 00000001800231d8     LIBCMT:crtmboxw.obj
 0003:000021f0       ?outmsg@?8??_NMSG_WRITE@@9@9 00000001800231f0     LIBCMT:crt0msg.obj
 0003:00002850       fSystemSet                 0000000180023850     LIBCMT:mbctype.obj
 0003:00002a60       ?_pgmname@?1??_setargv@@9@9 0000000180023a60     LIBCMT:stdargv.obj
 0003:00002b78       __type_info_root_node      0000000180023b78     LIBCMT:typname.obj
 0003:00002b90       lclcritsects               0000000180023b90     LIBCMT:mlock.obj
 0003:00002dc0       g_pfnRtlGenRandom          0000000180023dc0     LIBCMT:rand_s.obj
 0003:00002dd8       __crtCallProc              0000000180023dd8     LIBCMT:winapinls.obj
 0003:00002e38       heap                       0000000180023e38     LIBCMT:undname.obj
 0003:00002e68       __enable_percent_n         0000000180023e68     LIBCMT:printf.obj
 0003:00002e8c       _Tuple_alloc               0000000180023e8c     bufferutil.obj
 0003:00002e8d       ignore                     0000000180023e8d     bufferutil.obj
 0003:00002e8e       allocator_arg              0000000180023e8e     bufferutil.obj
 0003:00002e8f       piecewise_construct        0000000180023e8f     bufferutil.obj
 0004:00000000       $pdata$??_EExternalSourceStream@ScriptCompiler@v8@@UEAAPEAXI@Z 0000000180026000     bufferutil.obj
 0004:0000000c       $pdata$0$??_EExternalSourceStream@ScriptCompiler@v8@@UEAAPEAXI@Z 000000018002600c     bufferutil.obj
 0004:00000018       $pdata$1$??_EExternalSourceStream@ScriptCompiler@v8@@UEAAPEAXI@Z 0000000180026018     bufferutil.obj
 0004:00000024       $pdata$??_EExternalOneByteStringResource@String@v8@@UEAAPEAXI@Z 0000000180026024     bufferutil.obj
 0004:00000024       $pdata$??_EExternalStringResource@String@v8@@UEAAPEAXI@Z 0000000180026024     bufferutil.obj
 0004:00000024       $pdata$??_EExternalStringResourceBase@String@v8@@UEAAPEAXI@Z 0000000180026024     bufferutil.obj
 0004:00000030       $pdata$0$??_EExternalOneByteStringResource@String@v8@@UEAAPEAXI@Z 0000000180026030     bufferutil.obj
 0004:00000030       $pdata$0$??_EExternalStringResourceBase@String@v8@@UEAAPEAXI@Z 0000000180026030     bufferutil.obj
 0004:00000030       $pdata$0$??_EExternalStringResource@String@v8@@UEAAPEAXI@Z 0000000180026030     bufferutil.obj
 0004:0000003c       $pdata$1$??_EExternalStringResource@String@v8@@UEAAPEAXI@Z 000000018002603c     bufferutil.obj
 0004:0000003c       $pdata$1$??_EExternalStringResourceBase@String@v8@@UEAAPEAXI@Z 000000018002603c     bufferutil.obj
 0004:0000003c       $pdata$1$??_EExternalOneByteStringResource@String@v8@@UEAAPEAXI@Z 000000018002603c     bufferutil.obj
 0004:00000048       $pdata$?NewInstance@Function@v8@@QEBA?AV?$MaybeLocal@VObject@v8@@@2@V?$Local@VContext@v8@@@2@@Z 0000000180026048     bufferutil.obj
 0004:00000054       $pdata$??_EAllocator@ArrayBuffer@v8@@UEAAPEAXI@Z 0000000180026054     bufferutil.obj
 0004:00000060       $pdata$0$??_EAllocator@ArrayBuffer@v8@@UEAAPEAXI@Z 0000000180026060     bufferutil.obj
 0004:0000006c       $pdata$1$??_EAllocator@ArrayBuffer@v8@@UEAAPEAXI@Z 000000018002606c     bufferutil.obj
 0004:00000078       $pdata$?SetIndexedPropertyHandler@ObjectTemplate@v8@@QEAAXP6AXIAEBV?$PropertyCallbackInfo@VValue@v8@@@2@@ZP6AXIV?$Local@VValue@v8@@@2@0@ZP6AXIAEBV?$PropertyCallbackInfo@VInteger@v8@@@2@@ZP6AXIAEBV?$PropertyCallbackInfo@VBoolean@v8@@@2@@ZP6AXAEBV?$PropertyCallbackInfo@VArray@v8@@@2@@Z2@Z 0000000180026078     bufferutil.obj
 0004:00000084       $pdata$??_EExternalOneByteStringResourceImpl@v8@@UEAAPEAXI@Z 0000000180026084     bufferutil.obj
 0004:00000090       $pdata$0$??_EExternalOneByteStringResourceImpl@v8@@UEAAPEAXI@Z 0000000180026090     bufferutil.obj
 0004:0000009c       $pdata$1$??_EExternalOneByteStringResourceImpl@v8@@UEAAPEAXI@Z 000000018002609c     bufferutil.obj
 0004:000000a8       $pdata$??_EExtension@v8@@UEAAPEAXI@Z 00000001800260a8     bufferutil.obj
 0004:000000b4       $pdata$0$??_EExtension@v8@@UEAAPEAXI@Z 00000001800260b4     bufferutil.obj
 0004:000000c0       $pdata$1$??_EExtension@v8@@UEAAPEAXI@Z 00000001800260c0     bufferutil.obj
 0004:000000cc       $pdata$??_EPersistentHandleVisitor@v8@@UEAAPEAXI@Z 00000001800260cc     bufferutil.obj
 0004:000000cc       $pdata$??_EExternalResourceVisitor@v8@@UEAAPEAXI@Z 00000001800260cc     bufferutil.obj
 0004:000000d8       $pdata$0$??_EPersistentHandleVisitor@v8@@UEAAPEAXI@Z 00000001800260d8     bufferutil.obj
 0004:000000d8       $pdata$0$??_EExternalResourceVisitor@v8@@UEAAPEAXI@Z 00000001800260d8     bufferutil.obj
 0004:000000e4       $pdata$1$??_EPersistentHandleVisitor@v8@@UEAAPEAXI@Z 00000001800260e4     bufferutil.obj
 0004:000000e4       $pdata$1$??_EExternalResourceVisitor@v8@@UEAAPEAXI@Z 00000001800260e4     bufferutil.obj
 0004:000000f0       $pdata$??0Scope@Isolate@v8@@QEAA@PEAV12@@Z 00000001800260f0     bufferutil.obj
 0004:000000fc       $pdata$??0Unlocker@v8@@QEAA@PEAVIsolate@1@@Z 00000001800260fc     bufferutil.obj
 0004:00000108       $pdata$??0Locker@v8@@QEAA@PEAVIsolate@1@@Z 0000000180026108     bufferutil.obj
 0004:00000114       $pdata$?Set@Template@v8@@QEAAXPEAVIsolate@2@PEBDV?$Local@VData@v8@@@2@@Z 0000000180026114     bufferutil.obj
 0004:00000120       $pdata$?GetInternalField@Object@v8@@QEAA?AV?$Local@VValue@v8@@@2@H@Z 0000000180026120     bufferutil.obj
 0004:0000012c       $pdata$?ToBoolean@Value@v8@@QEBA?AV?$Local@VBoolean@v8@@@2@XZ 000000018002612c     bufferutil.obj
 0004:00000138       $pdata$?ToNumber@Value@v8@@QEBA?AV?$Local@VNumber@v8@@@2@XZ 0000000180026138     bufferutil.obj
 0004:00000144       $pdata$?ToString@Value@v8@@QEBA?AV?$Local@VString@v8@@@2@XZ 0000000180026144     bufferutil.obj
 0004:00000150       $pdata$?ToDetailString@Value@v8@@QEBA?AV?$Local@VString@v8@@@2@XZ 0000000180026150     bufferutil.obj
 0004:0000015c       $pdata$?ToObject@Value@v8@@QEBA?AV?$Local@VObject@v8@@@2@XZ 000000018002615c     bufferutil.obj
 0004:00000168       $pdata$?ToInteger@Value@v8@@QEBA?AV?$Local@VInteger@v8@@@2@XZ 0000000180026168     bufferutil.obj
 0004:00000174       $pdata$?ToUint32@Value@v8@@QEBA?AV?$Local@VUint32@v8@@@2@XZ 0000000180026174     bufferutil.obj
 0004:00000180       $pdata$?ToInt32@Value@v8@@QEBA?AV?$Local@VInt32@v8@@@2@XZ 0000000180026180     bufferutil.obj
 0004:0000018c       $pdata$?AdjustAmountOfExternalAllocatedMemory@Isolate@v8@@QEAA_J_J@Z 000000018002618c     bufferutil.obj
 0004:00000198       $pdata$?GetEmbedderData@Context@v8@@QEAA?AV?$Local@VValue@v8@@@2@H@Z 0000000180026198     bufferutil.obj
 0004:000001a4       $pdata$?SetAllowCodeGenerationFromStringsCallback@V8@v8@@SAXP6A_NV?$Local@VContext@v8@@@2@@Z@Z 00000001800261a4     bufferutil.obj
 0004:000001b0       $pdata$?IsDead@V8@v8@@SA_NXZ 00000001800261b0     bufferutil.obj
 0004:000001bc       $pdata$?AddMessageListener@V8@v8@@SA_NP6AXV?$Local@VMessage@v8@@@2@V?$Local@VValue@v8@@@2@@Z1@Z 00000001800261bc     bufferutil.obj
 0004:000001c8       $pdata$?RemoveMessageListeners@V8@v8@@SAXP6AXV?$Local@VMessage@v8@@@2@V?$Local@VValue@v8@@@2@@Z@Z 00000001800261c8     bufferutil.obj
 0004:000001d4       $pdata$?SetFailedAccessCheckCallbackFunction@V8@v8@@SAXP6AXV?$Local@VObject@v8@@@2@W4AccessType@2@V?$Local@VValue@v8@@@2@@Z@Z 00000001800261d4     bufferutil.obj
 0004:000001e0       $pdata$?SetCaptureStackTraceForUncaughtExceptions@V8@v8@@SAX_NHW4StackTraceOptions@StackTrace@2@@Z 00000001800261e0     bufferutil.obj
 0004:000001ec       $pdata$?SetFatalErrorHandler@V8@v8@@SAXP6AXPEBD0@Z@Z 00000001800261ec     bufferutil.obj
 0004:000001f8       $pdata$?RemoveGCPrologueCallback@V8@v8@@SAXP6AXW4GCType@2@W4GCCallbackFlags@2@@Z@Z 00000001800261f8     bufferutil.obj
 0004:00000204       $pdata$?RemoveGCEpilogueCallback@V8@v8@@SAXP6AXW4GCType@2@W4GCCallbackFlags@2@@Z@Z 0000000180026204     bufferutil.obj
 0004:00000210       $pdata$?AddMemoryAllocationCallback@V8@v8@@SAXP6AXW4ObjectSpace@2@W4AllocationAction@2@H@Z01@Z 0000000180026210     bufferutil.obj
 0004:0000021c       $pdata$?RemoveMemoryAllocationCallback@V8@v8@@SAXP6AXW4ObjectSpace@2@W4AllocationAction@2@H@Z@Z 000000018002621c     bufferutil.obj
 0004:00000228       $pdata$?IsExecutionTerminating@V8@v8@@SA_NPEAVIsolate@2@@Z 0000000180026228     bufferutil.obj
 0004:00000234       $pdata$?VisitExternalResources@V8@v8@@SAXPEAVExternalResourceVisitor@2@@Z 0000000180026234     bufferutil.obj
 0004:00000240       $pdata$?VisitHandlesWithClassIds@V8@v8@@SAXPEAVPersistentHandleVisitor@2@@Z 0000000180026240     bufferutil.obj
 0004:0000024c       $pdata$?Wrap@ObjectWrap@node@@IEAAXV?$Local@VObject@v8@@@v8@@@Z 000000018002624c     bufferutil.obj
 0004:00000258       $pdata$?Ref@ObjectWrap@node@@MEAAXXZ 0000000180026258     bufferutil.obj
 0004:00000264       $pdata$?Unref@ObjectWrap@node@@MEAAXXZ 0000000180026264     bufferutil.obj
 0004:00000270       $pdata$?WeakCallback@ObjectWrap@node@@CAXAEBV?$WeakCallbackData@VObject@v8@@VObjectWrap@node@@@v8@@@Z 0000000180026270     bufferutil.obj
 0004:0000027c       $pdata$??_GObjectWrap@node@@UEAAPEAXI@Z 000000018002627c     bufferutil.obj
 0004:0000027c       $pdata$??_GBufferUtil@@UEAAPEAXI@Z 000000018002627c     bufferutil.obj
 0004:00000288       $pdata$?FunctionCallbackWrapper@imp@Nan@@YAXAEBV?$FunctionCallbackInfo@VValue@v8@@@v8@@@Z 0000000180026288     bufferutil.obj
 0004:00000294       $pdata$?New@?$Factory@VFunctionTemplate@v8@@@imp@Nan@@SA?AV?$Local@VFunctionTemplate@v8@@@v8@@P6AXAEBV?$FunctionCallbackInfo@VValue@v8@@@3@@ZV?$Local@VValue@v8@@@5@V?$Local@VSignature@v8@@@5@@Z 0000000180026294     bufferutil.obj
 0004:000002a0       $pdata$0$?New@?$Factory@VFunctionTemplate@v8@@@imp@Nan@@SA?AV?$Local@VFunctionTemplate@v8@@@v8@@P6AXAEBV?$FunctionCallbackInfo@VValue@v8@@@3@@ZV?$Local@VValue@v8@@@5@V?$Local@VSignature@v8@@@5@@Z 00000001800262a0     bufferutil.obj
 0004:000002ac       $pdata$1$?New@?$Factory@VFunctionTemplate@v8@@@imp@Nan@@SA?AV?$Local@VFunctionTemplate@v8@@@v8@@P6AXAEBV?$FunctionCallbackInfo@VValue@v8@@@3@@ZV?$Local@VValue@v8@@@5@V?$Local@VSignature@v8@@@5@@Z 00000001800262ac     bufferutil.obj
 0004:000002b8       $pdata$?Initialize@BufferUtil@@SAXV?$Local@VObject@v8@@@v8@@@Z 00000001800262b8     bufferutil.obj
 0004:000002c4       $pdata$?New@BufferUtil@@KAXAEBV?$FunctionCallbackInfo@VValue@v8@@@Nan@@@Z 00000001800262c4     bufferutil.obj
 0004:000002d0       $pdata$?Merge@BufferUtil@@KAXAEBV?$FunctionCallbackInfo@VValue@v8@@@Nan@@@Z 00000001800262d0     bufferutil.obj
 0004:000002dc       $pdata$6$?Merge@BufferUtil@@KAXAEBV?$FunctionCallbackInfo@VValue@v8@@@Nan@@@Z 00000001800262dc     bufferutil.obj
 0004:000002e8       $pdata$7$?Merge@BufferUtil@@KAXAEBV?$FunctionCallbackInfo@VValue@v8@@@Nan@@@Z 00000001800262e8     bufferutil.obj
 0004:000002f4       $pdata$8$?Merge@BufferUtil@@KAXAEBV?$FunctionCallbackInfo@VValue@v8@@@Nan@@@Z 00000001800262f4     bufferutil.obj
 0004:00000300       $pdata$9$?Merge@BufferUtil@@KAXAEBV?$FunctionCallbackInfo@VValue@v8@@@Nan@@@Z 0000000180026300     bufferutil.obj
 0004:0000030c       $pdata$?Unmask@BufferUtil@@KAXAEBV?$FunctionCallbackInfo@VValue@v8@@@Nan@@@Z 000000018002630c     bufferutil.obj
 0004:00000318       $pdata$?Mask@BufferUtil@@KAXAEBV?$FunctionCallbackInfo@VValue@v8@@@Nan@@@Z 0000000180026318     bufferutil.obj
 0004:00000324       $pdata$?init@@YAXV?$Local@VObject@v8@@@v8@@@Z 0000000180026324     bufferutil.obj
 0004:00000330       $pdata$?erase@?$_Tree@V?$_Tmap_traits@P6AXAEBV?$FunctionCallbackInfo@VValue@v8@@@Nan@@@ZPEAUFunctionWrapper@imp@2@U?$less@P6AXAEBV?$FunctionCallbackInfo@VValue@v8@@@Nan@@@Z@std@@V?$allocator@U?$pair@Q6AXAEBV?$FunctionCallbackInfo@VValue@v8@@@Nan@@@ZPEAUFunctionWrapper@imp@2@@std@@@6@$0A@@std@@@std@@QEAA?AV?$_Tree_iterator@V?$_Tree_val@U?$_Tree_simple_types@U?$pair@Q6AXAEBV?$FunctionCallbackInfo@VValue@v8@@@Nan@@@ZPEAUFunctionWrapper@imp@2@@std@@@std@@@std@@@2@V?$_Tree_const_iterator@V?$_Tree_val@U?$_Tree_simple_types@U?$pair@Q6AXAEBV?$FunctionCallbackInfo@VValue@v8@@@Nan@@@ZPEAUFunctionWrapper@imp@2@@std@@@std@@@std@@@2@0@Z 0000000180026330     bufferutil.obj
 0004:0000033c       $pdata$0$?erase@?$_Tree@V?$_Tmap_traits@P6AXAEBV?$FunctionCallbackInfo@VValue@v8@@@Nan@@@ZPEAUFunctionWrapper@imp@2@U?$less@P6AXAEBV?$FunctionCallbackInfo@VValue@v8@@@Nan@@@Z@std@@V?$allocator@U?$pair@Q6AXAEBV?$FunctionCallbackInfo@VValue@v8@@@Nan@@@ZPEAUFunctionWrapper@imp@2@@std@@@6@$0A@@std@@@std@@QEAA?AV?$_Tree_iterator@V?$_Tree_val@U?$_Tree_simple_types@U?$pair@Q6AXAEBV?$FunctionCallbackInfo@VValue@v8@@@Nan@@@ZPEAUFunctionWrapper@imp@2@@std@@@std@@@std@@@2@V?$_Tree_const_iterator@V?$_Tree_val@U?$_Tree_simple_types@U?$pair@Q6AXAEBV?$FunctionCallbackInfo@VValue@v8@@@Nan@@@ZPEAUFunctionWrapper@imp@2@@std@@@std@@@std@@@2@0@Z 000000018002633c     bufferutil.obj
 0004:00000348       $pdata$1$?erase@?$_Tree@V?$_Tmap_traits@P6AXAEBV?$FunctionCallbackInfo@VValue@v8@@@Nan@@@ZPEAUFunctionWrapper@imp@2@U?$less@P6AXAEBV?$FunctionCallbackInfo@VValue@v8@@@Nan@@@Z@std@@V?$allocator@U?$pair@Q6AXAEBV?$FunctionCallbackInfo@VValue@v8@@@Nan@@@ZPEAUFunctionWrapper@imp@2@@std@@@6@$0A@@std@@@std@@QEAA?AV?$_Tree_iterator@V?$_Tree_val@U?$_Tree_simple_types@U?$pair@Q6AXAEBV?$FunctionCallbackInfo@VValue@v8@@@Nan@@@ZPEAUFunctionWrapper@imp@2@@std@@@std@@@std@@@2@V?$_Tree_const_iterator@V?$_Tree_val@U?$_Tree_simple_types@U?$pair@Q6AXAEBV?$FunctionCallbackInfo@VValue@v8@@@Nan@@@ZPEAUFunctionWrapper@imp@2@@std@@@std@@@std@@@2@0@Z 0000000180026348     bufferutil.obj
 0004:00000354       $pdata$?erase@?$_Tree@V?$_Tmap_traits@P6AXAEBV?$FunctionCallbackInfo@VValue@v8@@@Nan@@@ZPEAUFunctionWrapper@imp@2@U?$less@P6AXAEBV?$FunctionCallbackInfo@VValue@v8@@@Nan@@@Z@std@@V?$allocator@U?$pair@Q6AXAEBV?$FunctionCallbackInfo@VValue@v8@@@Nan@@@ZPEAUFunctionWrapper@imp@2@@std@@@6@$0A@@std@@@std@@QEAA?AV?$_Tree_iterator@V?$_Tree_val@U?$_Tree_simple_types@U?$pair@Q6AXAEBV?$FunctionCallbackInfo@VValue@v8@@@Nan@@@ZPEAUFunctionWrapper@imp@2@@std@@@std@@@std@@@2@V?$_Tree_const_iterator@V?$_Tree_val@U?$_Tree_simple_types@U?$pair@Q6AXAEBV?$FunctionCallbackInfo@VValue@v8@@@Nan@@@ZPEAUFunctionWrapper@imp@2@@std@@@std@@@std@@@2@@Z 0000000180026354     bufferutil.obj
 0004:00000360       $pdata$2$?erase@?$_Tree@V?$_Tmap_traits@P6AXAEBV?$FunctionCallbackInfo@VValue@v8@@@Nan@@@ZPEAUFunctionWrapper@imp@2@U?$less@P6AXAEBV?$FunctionCallbackInfo@VValue@v8@@@Nan@@@Z@std@@V?$allocator@U?$pair@Q6AXAEBV?$FunctionCallbackInfo@VValue@v8@@@Nan@@@ZPEAUFunctionWrapper@imp@2@@std@@@6@$0A@@std@@@std@@QEAA?AV?$_Tree_iterator@V?$_Tree_val@U?$_Tree_simple_types@U?$pair@Q6AXAEBV?$FunctionCallbackInfo@VValue@v8@@@Nan@@@ZPEAUFunctionWrapper@imp@2@@std@@@std@@@std@@@2@V?$_Tree_const_iterator@V?$_Tree_val@U?$_Tree_simple_types@U?$pair@Q6AXAEBV?$FunctionCallbackInfo@VValue@v8@@@Nan@@@ZPEAUFunctionWrapper@imp@2@@std@@@std@@@std@@@2@@Z 0000000180026360     bufferutil.obj
 0004:0000036c       $pdata$3$?erase@?$_Tree@V?$_Tmap_traits@P6AXAEBV?$FunctionCallbackInfo@VValue@v8@@@Nan@@@ZPEAUFunctionWrapper@imp@2@U?$less@P6AXAEBV?$FunctionCallbackInfo@VValue@v8@@@Nan@@@Z@std@@V?$allocator@U?$pair@Q6AXAEBV?$FunctionCallbackInfo@VValue@v8@@@Nan@@@ZPEAUFunctionWrapper@imp@2@@std@@@6@$0A@@std@@@std@@QEAA?AV?$_Tree_iterator@V?$_Tree_val@U?$_Tree_simple_types@U?$pair@Q6AXAEBV?$FunctionCallbackInfo@VValue@v8@@@Nan@@@ZPEAUFunctionWrapper@imp@2@@std@@@std@@@std@@@2@V?$_Tree_const_iterator@V?$_Tree_val@U?$_Tree_simple_types@U?$pair@Q6AXAEBV?$FunctionCallbackInfo@VValue@v8@@@Nan@@@ZPEAUFunctionWrapper@imp@2@@std@@@std@@@std@@@2@@Z 000000018002636c     bufferutil.obj
 0004:00000378       $pdata$?_Erase@?$_Tree@V?$_Tmap_traits@P6AXAEBV?$FunctionCallbackInfo@VValue@v8@@@Nan@@@ZPEAUFunctionWrapper@imp@2@U?$less@P6AXAEBV?$FunctionCallbackInfo@VValue@v8@@@Nan@@@Z@std@@V?$allocator@U?$pair@Q6AXAEBV?$FunctionCallbackInfo@VValue@v8@@@Nan@@@ZPEAUFunctionWrapper@imp@2@@std@@@6@$0A@@std@@@std@@IEAAXPEAU?$_Tree_node@U?$pair@Q6AXAEBV?$FunctionCallbackInfo@VValue@v8@@@Nan@@@ZPEAUFunctionWrapper@imp@2@@std@@PEAX@2@@Z 0000000180026378     bufferutil.obj
 0004:00000384       $pdata$??$GetWrapper@P6AXAEBV?$FunctionCallbackInfo@VValue@v8@@@Nan@@@ZUFunctionWrapper@imp@2@@imp@Nan@@YAPEAUFunctionWrapper@01@P6AXAEBV?$FunctionCallbackInfo@VValue@v8@@@1@@Z@Z 0000000180026384     bufferutil.obj
 0004:00000390       $pdata$1$??$GetWrapper@P6AXAEBV?$FunctionCallbackInfo@VValue@v8@@@Nan@@@ZUFunctionWrapper@imp@2@@imp@Nan@@YAPEAUFunctionWrapper@01@P6AXAEBV?$FunctionCallbackInfo@VValue@v8@@@1@@Z@Z 0000000180026390     bufferutil.obj
 0004:0000039c       $pdata$3$??$GetWrapper@P6AXAEBV?$FunctionCallbackInfo@VValue@v8@@@Nan@@@ZUFunctionWrapper@imp@2@@imp@Nan@@YAPEAUFunctionWrapper@01@P6AXAEBV?$FunctionCallbackInfo@VValue@v8@@@1@@Z@Z 000000018002639c     bufferutil.obj
 0004:000003a8       $pdata$4$??$GetWrapper@P6AXAEBV?$FunctionCallbackInfo@VValue@v8@@@Nan@@@ZUFunctionWrapper@imp@2@@imp@Nan@@YAPEAUFunctionWrapper@01@P6AXAEBV?$FunctionCallbackInfo@VValue@v8@@@1@@Z@Z 00000001800263a8     bufferutil.obj
 0004:000003b4       $pdata$5$??$GetWrapper@P6AXAEBV?$FunctionCallbackInfo@VValue@v8@@@Nan@@@ZUFunctionWrapper@imp@2@@imp@Nan@@YAPEAUFunctionWrapper@01@P6AXAEBV?$FunctionCallbackInfo@VValue@v8@@@1@@Z@Z 00000001800263b4     bufferutil.obj
 0004:000003c0       $pdata$??$_Insert_hint@AEAU?$pair@Q6AXAEBV?$FunctionCallbackInfo@VValue@v8@@@Nan@@@ZPEAUFunctionWrapper@imp@2@@std@@PEAU?$_Tree_node@U?$pair@Q6AXAEBV?$FunctionCallbackInfo@VValue@v8@@@Nan@@@ZPEAUFunctionWrapper@imp@2@@std@@PEAX@2@@?$_Tree@V?$_Tmap_traits@P6AXAEBV?$FunctionCallbackInfo@VValue@v8@@@Nan@@@ZPEAUFunctionWrapper@imp@2@U?$less@P6AXAEBV?$FunctionCallbackInfo@VValue@v8@@@Nan@@@Z@std@@V?$allocator@U?$pair@Q6AXAEBV?$FunctionCallbackInfo@VValue@v8@@@Nan@@@ZPEAUFunctionWrapper@imp@2@@std@@@6@$0A@@std@@@std@@IEAA?AV?$_Tree_iterator@V?$_Tree_val@U?$_Tree_simple_types@U?$pair@Q6AXAEBV?$FunctionCallbackInfo@VValue@v8@@@Nan@@@ZPEAUFunctionWrapper@imp@2@@std@@@std@@@std@@@1@V?$_Tree_const_iterator@V?$_Tree_val@U?$_Tree_simple_types@U?$pair@Q6AXAEBV?$FunctionCallbackInfo@VValue@v8@@@Nan@@@ZPEAUFunctionWrapper@imp@2@@std@@@std@@@std@@@1@AEAU?$pair@Q6AXAEBV?$FunctionCallbackInfo@VValue@v8@@@Nan@@@ZPEAUFunctionWrapper@imp@2@@1@PEAU?$_Tree_node@U?$pair@Q6AXAEBV?$FunctionCallbackInfo@VValue@v8@@@Nan@@@ZPEAUFunctionWrapper@imp@2@@std@@PEAX@1@@Z 00000001800263c0     bufferutil.obj
 0004:000003cc       $pdata$??$_Insert_at@AEAU?$pair@Q6AXAEBV?$FunctionCallbackInfo@VValue@v8@@@Nan@@@ZPEAUFunctionWrapper@imp@2@@std@@PEAU?$_Tree_node@U?$pair@Q6AXAEBV?$FunctionCallbackInfo@VValue@v8@@@Nan@@@ZPEAUFunctionWrapper@imp@2@@std@@PEAX@2@@?$_Tree@V?$_Tmap_traits@P6AXAEBV?$FunctionCallbackInfo@VValue@v8@@@Nan@@@ZPEAUFunctionWrapper@imp@2@U?$less@P6AXAEBV?$FunctionCallbackInfo@VValue@v8@@@Nan@@@Z@std@@V?$allocator@U?$pair@Q6AXAEBV?$FunctionCallbackInfo@VValue@v8@@@Nan@@@ZPEAUFunctionWrapper@imp@2@@std@@@6@$0A@@std@@@std@@IEAA?AV?$_Tree_iterator@V?$_Tree_val@U?$_Tree_simple_types@U?$pair@Q6AXAEBV?$FunctionCallbackInfo@VValue@v8@@@Nan@@@ZPEAUFunctionWrapper@imp@2@@std@@@std@@@std@@@1@_NPEAU?$_Tree_node@U?$pair@Q6AXAEBV?$FunctionCallbackInfo@VValue@v8@@@Nan@@@ZPEAUFunctionWrapper@imp@2@@std@@PEAX@1@AEAU?$pair@Q6AXAEBV?$FunctionCallbackInfo@VValue@v8@@@Nan@@@ZPEAUFunctionWrapper@imp@2@@1@1@Z 00000001800263cc     bufferutil.obj
 0004:000003d8       $pdata$??$_Insert_nohint@AEAU?$pair@Q6AXAEBV?$FunctionCallbackInfo@VValue@v8@@@Nan@@@ZPEAUFunctionWrapper@imp@2@@std@@PEAU?$_Tree_node@U?$pair@Q6AXAEBV?$FunctionCallbackInfo@VValue@v8@@@Nan@@@ZPEAUFunctionWrapper@imp@2@@std@@PEAX@2@@?$_Tree@V?$_Tmap_traits@P6AXAEBV?$FunctionCallbackInfo@VValue@v8@@@Nan@@@ZPEAUFunctionWrapper@imp@2@U?$less@P6AXAEBV?$FunctionCallbackInfo@VValue@v8@@@Nan@@@Z@std@@V?$allocator@U?$pair@Q6AXAEBV?$FunctionCallbackInfo@VValue@v8@@@Nan@@@ZPEAUFunctionWrapper@imp@2@@std@@@6@$0A@@std@@@std@@IEAA?AU?$pair@V?$_Tree_iterator@V?$_Tree_val@U?$_Tree_simple_types@U?$pair@Q6AXAEBV?$FunctionCallbackInfo@VValue@v8@@@Nan@@@ZPEAUFunctionWrapper@imp@2@@std@@@std@@@std@@@std@@_N@1@_NAEAU?$pair@Q6AXAEBV?$FunctionCallbackInfo@VValue@v8@@@Nan@@@ZPEAUFunctionWrapper@imp@2@@1@PEAU?$_Tree_node@U?$pair@Q6AXAEBV?$FunctionCallbackInfo@VValue@v8@@@Nan@@@ZPEAUFunctionWrapper@imp@2@@std@@PEAX@1@@Z 00000001800263d8     bufferutil.obj
 0004:000003e4       $pdata$load_exe_hook       00000001800263e4     win_delay_load_hook.obj
 0004:000003fc       $pdata$??0bad_alloc@std@@QEAA@AEBV01@@Z 00000001800263fc     libcpmt:xthrow.obj
 0004:00000408       $pdata$??0length_error@std@@QEAA@AEBV01@@Z 0000000180026408     libcpmt:xthrow.obj
 0004:00000414       $pdata$??0logic_error@std@@QEAA@AEBV01@@Z 0000000180026414     libcpmt:xthrow.obj
 0004:00000420       $pdata$??_Gbad_alloc@std@@UEAAPEAXI@Z 0000000180026420     libcpmt:xthrow.obj
 0004:0000042c       $pdata$??_Glength_error@std@@UEAAPEAXI@Z 000000018002642c     libcpmt:xthrow.obj
 0004:0000042c       $pdata$??_Glogic_error@std@@UEAAPEAXI@Z 000000018002642c     libcpmt:xthrow.obj
 0004:00000438       $pdata$?_Xbad_alloc@std@@YAXXZ 0000000180026438     libcpmt:xthrow.obj
 0004:00000444       $pdata$?_Xlength_error@std@@YAXPEBD@Z 0000000180026444     libcpmt:xthrow.obj
 0004:00000468       $pdata$_wassert            0000000180026468     LIBCMT:wassert.obj
 0004:00000474       $pdata$swprintf            0000000180026474     LIBCMT:wassert.obj
 0004:00000480       $pdata$__onexitinit        0000000180026480     LIBCMT:onexit.obj
 0004:0000048c       $pdata$_onexit             000000018002648c     LIBCMT:onexit.obj
 0004:00000498       $pdata$atexit              0000000180026498     LIBCMT:onexit.obj
 0004:000004a4       $pdata$_purecall           00000001800264a4     LIBCMT:purevirt.obj
 0004:000004b0       $pdata$??2@YAPEAX_K@Z      00000001800264b0     LIBCMT:new.obj
 0004:000004bc       $pdata$??0_LocaleUpdate@@QEAA@PEAUlocaleinfo_struct@@@Z 00000001800264bc     LIBCMT:stricmp.obj
 0004:000004c8       $pdata$_stricmp            00000001800264c8     LIBCMT:stricmp.obj
 0004:000004d4       $pdata$_stricmp_l          00000001800264d4     LIBCMT:stricmp.obj
 0004:000004e0       $pdata$_CRT_INIT           00000001800264e0     LIBCMT:dllcrt0.obj
 0004:000004ec       $pdata$_DllMainCRTStartup  00000001800264ec     LIBCMT:dllcrt0.obj
 0004:000004f8       $pdata$__DllMainCRTStartup 00000001800264f8     LIBCMT:dllcrt0.obj
 0004:00000510       $pdata$_CxxThrowException  0000000180026510     LIBCMT:throw.obj
 0004:0000051c       $pdata$??_Gtype_info@@UEAAPEAXI@Z 000000018002651c     LIBCMT:typinfo.obj
 0004:00000528       $pdata$??0exception@std@@QEAA@AEBQEBD@Z 0000000180026528     LIBCMT:stdexcpt.obj
 0004:00000534       $pdata$??0exception@std@@QEAA@AEBV01@@Z 0000000180026534     LIBCMT:stdexcpt.obj
 0004:00000540       $pdata$??4exception@std@@QEAAAEAV01@AEBV01@@Z 0000000180026540     LIBCMT:stdexcpt.obj
 0004:0000054c       $pdata$??_Gexception@std@@UEAAPEAXI@Z 000000018002654c     LIBCMT:stdexcpt.obj
 0004:00000558       $pdata$?_Copy_str@exception@std@@AEAAXPEBD@Z 0000000180026558     LIBCMT:stdexcpt.obj
 0004:00000564       $pdata$?_Tidy@exception@std@@AEAAXXZ 0000000180026564     LIBCMT:stdexcpt.obj
 0004:00000570       $pdata$__raise_securityfailure 0000000180026570     LIBCMT:gs_report.obj
 0004:0000057c       $pdata$__report_gsfailure  000000018002657c     LIBCMT:gs_report.obj
 0004:00000588       $pdata$__isa_available_init 0000000180026588     LIBCMT:cpu_disp.obj
 0004:00000594       $pdata$_call_reportfault   0000000180026594     LIBCMT:invarg.obj
 0004:000005a0       $pdata$_invalid_parameter  00000001800265a0     LIBCMT:invarg.obj
 0004:000005ac       $pdata$_invalid_parameter_noinfo 00000001800265ac     LIBCMT:invarg.obj
 0004:000005b8       $pdata$_invoke_watson      00000001800265b8     LIBCMT:invarg.obj
 0004:000005c4       $pdata$memcpy_s            00000001800265c4     LIBCMT:memcpy_s.obj
 0004:000005d0       $pdata$wcscat_s            00000001800265d0     LIBCMT:wcscat_s.obj
 0004:000005dc       $pdata$wcscpy_s            00000001800265dc     LIBCMT:wcscpy_s.obj
 0004:000005e8       $pdata$wcsncat_s           00000001800265e8     LIBCMT:wcsncat_s.obj
 0004:000005f4       $pdata$__crtCorExitProcess 00000001800265f4     LIBCMT:crt0dat.obj
 0004:00000600       $pdata$__crtExitProcess    0000000180026600     LIBCMT:crt0dat.obj
 0004:0000060c       $pdata$__freeCrtMemory     000000018002660c     LIBCMT:crt0dat.obj
 0004:00000618       $pdata$_amsg_exit          0000000180026618     LIBCMT:crt0dat.obj
 0004:00000624       $pdata$_cinit              0000000180026624     LIBCMT:crt0dat.obj
 0004:00000630       $pdata$_init_pointers      0000000180026630     LIBCMT:crt0dat.obj
 0004:0000063c       $pdata$_initterm           000000018002663c     LIBCMT:crt0dat.obj
 0004:00000648       $pdata$_initterm_e         0000000180026648     LIBCMT:crt0dat.obj
 0004:00000654       $pdata$doexit              0000000180026654     LIBCMT:crt0dat.obj
 0004:00000660       $pdata$abort               0000000180026660     LIBCMT:abort.obj
 0004:0000066c       $pdata$_set_error_mode     000000018002666c     LIBCMT:errmode.obj
 0004:00000678       $pdata$_itow_s             0000000180026678     LIBCMT:xtows.obj
 0004:00000684       $pdata$xtow_s              0000000180026684     LIBCMT:xtows.obj
 0004:00000690       $pdata$__initstdio         0000000180026690     LIBCMT:_file.obj
 0004:0000069c       $pdata$__endstdio          000000018002669c     LIBCMT:_file.obj
 0004:000006a8       $pdata$_lock_file          00000001800266a8     LIBCMT:_file.obj
 0004:000006b4       $pdata$_lock_file2         00000001800266b4     LIBCMT:_file.obj
 0004:000006c0       $pdata$_fflush_nolock      00000001800266c0     LIBCMT:fflush.obj
 0004:000006cc       $pdata$_flush              00000001800266cc     LIBCMT:fflush.obj
 0004:000006d8       $pdata$fflush              00000001800266d8     LIBCMT:fflush.obj
 0004:000006e4       $pdata$flsall              00000001800266e4     LIBCMT:fflush.obj
 0004:000006f0       $pdata$setvbuf             00000001800266f0     LIBCMT:setvbuf.obj
 0004:000006fc       $pdata$fwprintf            00000001800266fc     LIBCMT:fwprintf.obj
 0004:00000708       $pdata$_vswprintf_c_l      0000000180026708     LIBCMT:vswprnc.obj
 0004:00000714       $pdata$_vswprintf_helper   0000000180026714     LIBCMT:vswprnc.obj
 0004:00000720       $pdata$raise               0000000180026720     LIBCMT:winsig.obj
 0004:0000072c       $pdata$__crtMessageBoxW    000000018002672c     LIBCMT:crtmboxw.obj
 0004:00000738       $pdata$__GSHandlerCheck    0000000180026738     LIBCMT:gshandler.obj
 0004:00000744       $pdata$__GSHandlerCheckCommon 0000000180026744     LIBCMT:gshandler.obj
 0004:00000750       $pdata$_FF_MSGBANNER       0000000180026750     LIBCMT:crt0msg.obj
 0004:0000075c       $pdata$_NMSG_WRITE         000000018002675c     LIBCMT:crt0msg.obj
 0004:00000768       $pdata$_msize              0000000180026768     LIBCMT:msize.obj
 0004:00000774       $pdata$_calloc_crt         0000000180026774     LIBCMT:crtheap.obj
 0004:00000780       $pdata$_malloc_crt         0000000180026780     LIBCMT:crtheap.obj
 0004:0000078c       $pdata$_realloc_crt        000000018002678c     LIBCMT:crtheap.obj
 0004:00000798       $pdata$__C_specific_handler 0000000180026798     LIBCMT:chandler.obj
 0004:000007a4       $pdata$free                00000001800267a4     LIBCMT:free.obj
 0004:000007b0       $pdata$malloc              00000001800267b0     LIBCMT:malloc.obj
 0004:000007bc       $pdata$_callnewh           00000001800267bc     LIBCMT:handler.obj
 0004:000007c8       $pdata$__freetlocinfo      00000001800267c8     LIBCMT:localref.obj
 0004:000007d4       $pdata$__updatetlocinfo    00000001800267d4     LIBCMT:localref.obj
 0004:000007e0       $pdata$_updatetlocinfoEx_nolock 00000001800267e0     LIBCMT:localref.obj
 0004:000007ec       $pdata$__initmbctable      00000001800267ec     LIBCMT:mbctype.obj
 0004:000007f8       $pdata$?getSystemCP@@YAHH@Z 00000001800267f8     LIBCMT:mbctype.obj
 0004:00000804       $pdata$?setSBCS@@YAXPEAUthreadmbcinfostruct@@@Z 0000000180026804     LIBCMT:mbctype.obj
 0004:00000810       $pdata$?setSBUpLow@@YAXPEAUthreadmbcinfostruct@@@Z 0000000180026810     LIBCMT:mbctype.obj
 0004:0000081c       $pdata$__updatetmbcinfo    000000018002681c     LIBCMT:mbctype.obj
 0004:00000828       $pdata$_setmbcp            0000000180026828     LIBCMT:mbctype.obj
 0004:00000834       $pdata$_setmbcp_nolock     0000000180026834     LIBCMT:mbctype.obj
 0004:00000840       $pdata$_tolower_l          0000000180026840     LIBCMT:tolower.obj
 0004:0000084c       $pdata$_freefls            000000018002684c     LIBCMT:tidtable.obj
 0004:00000858       $pdata$_freeptd            0000000180026858     LIBCMT:tidtable.obj
 0004:00000864       $pdata$_getptd             0000000180026864     LIBCMT:tidtable.obj
 0004:00000870       $pdata$_getptd_noexit      0000000180026870     LIBCMT:tidtable.obj
 0004:0000087c       $pdata$_initptd            000000018002687c     LIBCMT:tidtable.obj
 0004:00000888       $pdata$_mtinit             0000000180026888     LIBCMT:tidtable.obj
 0004:00000894       $pdata$_mtterm             0000000180026894     LIBCMT:tidtable.obj
 0004:000008a0       $pdata$__doserrno          00000001800268a0     LIBCMT:dosmap.obj
 0004:000008ac       $pdata$_dosmaperr          00000001800268ac     LIBCMT:dosmap.obj
 0004:000008b8       $pdata$_errno              00000001800268b8     LIBCMT:dosmap.obj
 0004:000008c4       $pdata$_locterm            00000001800268c4     LIBCMT:wsetloca.obj
 0004:000008d0       $pdata$_XcptFilter         00000001800268d0     LIBCMT:winxfltr.obj
 0004:000008dc       $pdata$_heap_init          00000001800268dc     LIBCMT:heapinit.obj
 0004:000008e8       $pdata$_ioinit             00000001800268e8     LIBCMT:ioinit.obj
 0004:000008f4       $pdata$_ioterm             00000001800268f4     LIBCMT:ioinit.obj
 0004:00000900       $pdata$_setargv            0000000180026900     LIBCMT:stdargv.obj
 0004:0000090c       $pdata$parse_cmdline       000000018002690c     LIBCMT:stdargv.obj
 0004:00000918       $pdata$_setenvp            0000000180026918     LIBCMT:stdenvp.obj
 0004:00000924       $pdata$__security_init_cookie 0000000180026924     LIBCMT:gs_support.obj
 0004:00000930       $pdata$__crtGetEnvironmentStringsA 0000000180026930     LIBCMT:a_env.obj
 0004:0000093c       $pdata$__crtCaptureCurrentContext 000000018002693c     LIBCMT:winapisupp.obj
 0004:00000948       $pdata$__crtCapturePreviousContext 0000000180026948     LIBCMT:winapisupp.obj
 0004:00000954       $pdata$__crtInitializeCriticalSectionEx 0000000180026954     LIBCMT:winapisupp.obj
 0004:00000960       $pdata$__crtIsPackagedApp  0000000180026960     LIBCMT:winapisupp.obj
 0004:0000096c       $pdata$__crtLoadWinApiPointers 000000018002696c     LIBCMT:winapisupp.obj
 0004:00000978       $pdata$__crtTerminateProcess 0000000180026978     LIBCMT:winapisupp.obj
 0004:00000984       $pdata$__crtUnhandledException 0000000180026984     LIBCMT:winapisupp.obj
 0004:00000990       $pdata$_RTC_Initialize     0000000180026990     LIBCMT:initsect.obj
 0004:0000099c       $pdata$_RTC_Terminate      000000018002699c     LIBCMT:initsect.obj
 0004:000009a8       $pdata$__DestructExceptionObject 00000001800269a8     LIBCMT:frame.obj
 0004:000009b4       $pdata$?terminate@@YAXXZ   00000001800269b4     LIBCMT:hooks.obj
 0004:000009c0       $pdata$_initp_eh_hooks     00000001800269c0     LIBCMT:hooks.obj
 0004:000009d8       $pdata$?_Type_info_dtor@type_info@@CAXPEAV1@@Z 00000001800269d8     LIBCMT:typname.obj
 0004:000009e4       $pdata$_cfltcvt            00000001800269e4     LIBCMT:cvt.obj
 0004:000009f0       $pdata$_cfltcvt_l          00000001800269f0     LIBCMT:cvt.obj
 0004:000009fc       $pdata$_cftoa_l            00000001800269fc     LIBCMT:cvt.obj
 0004:00000a08       $pdata$_cftoe2_l           0000000180026a08     LIBCMT:cvt.obj
 0004:00000a14       $pdata$_cftoe_l            0000000180026a14     LIBCMT:cvt.obj
 0004:00000a20       $pdata$_cftof2_l           0000000180026a20     LIBCMT:cvt.obj
 0004:00000a2c       $pdata$_cftof_l            0000000180026a2c     LIBCMT:cvt.obj
 0004:00000a38       $pdata$_cftog_l            0000000180026a38     LIBCMT:cvt.obj
 0004:00000a44       $pdata$_cropzeros_l        0000000180026a44     LIBCMT:cvt.obj
 0004:00000a50       $pdata$_fassign_l          0000000180026a50     LIBCMT:cvt.obj
 0004:00000a5c       $pdata$_forcdecpt_l        0000000180026a5c     LIBCMT:cvt.obj
 0004:00000a68       $pdata$_initp_misc_cfltcvt_tab 0000000180026a68     LIBCMT:cmiscdat.obj
 0004:00000a74       $pdata$strcpy_s            0000000180026a74     LIBCMT:strcpy_s.obj
 0004:00000a8c       $pdata$_lock               0000000180026a8c     LIBCMT:mlock.obj
 0004:00000a98       $pdata$_mtdeletelocks      0000000180026a98     LIBCMT:mlock.obj
 0004:00000aa4       $pdata$_mtinitlocknum      0000000180026aa4     LIBCMT:mlock.obj
 0004:00000ab0       $pdata$_mtinitlocks        0000000180026ab0     LIBCMT:mlock.obj
 0004:00000abc       $pdata$_IsNonwritableInCurrentImage 0000000180026abc     LIBCMT:pesect.obj
 0004:00000ac8       $pdata$_ftbuf              0000000180026ac8     LIBCMT:_sftbuf.obj
 0004:00000ad4       $pdata$_stbuf              0000000180026ad4     LIBCMT:_sftbuf.obj
 0004:00000ae0       $pdata$_fcloseall          0000000180026ae0     LIBCMT:closeall.obj
 0004:00000aec       $pdata$_fileno             0000000180026aec     LIBCMT:fileno.obj
 0004:00000af8       $pdata$_commit             0000000180026af8     LIBCMT:commit.obj
 0004:00000b04       $pdata$_write              0000000180026b04     LIBCMT:write.obj
 0004:00000b10       $pdata$_write_nolock       0000000180026b10     LIBCMT:write.obj
 0004:00000b1c       $pdata$_freebuf            0000000180026b1c     LIBCMT:_freebuf.obj
 0004:00000b28       $pdata$_woutput_l          0000000180026b28     LIBCMT:woutput.obj
 0004:00000b34       $pdata$write_char          0000000180026b34     LIBCMT:woutput.obj
 0004:00000b40       $pdata$write_multi_char    0000000180026b40     LIBCMT:woutput.obj
 0004:00000b4c       $pdata$write_string        0000000180026b4c     LIBCMT:woutput.obj
 0004:00000b58       $pdata$_flsbuf             0000000180026b58     LIBCMT:_flsbuf.obj
 0004:00000b64       $pdata$wcsncpy_s           0000000180026b64     LIBCMT:wcsncpy_s.obj
 0004:00000b70       $pdata$realloc             0000000180026b70     LIBCMT:realloc.obj
 0004:00000b7c       $pdata$_calloc_impl        0000000180026b7c     LIBCMT:calloc_impl.obj
 0004:00000bb8       $pdata$GetTableIndexFromLocaleName 0000000180026bb8     LIBCMT:winapinls.obj
 0004:00000bc4       $pdata$__crtDownlevelLocaleNameToLCID 0000000180026bc4     LIBCMT:winapinls.obj
 0004:00000bd0       $pdata$__crtLCMapStringEx  0000000180026bd0     LIBCMT:winapinls.obj
 0004:00000be8       $pdata$__free_lconv_mon    0000000180026be8     LIBCMT:initmon.obj
 0004:00000bf4       $pdata$__free_lconv_num    0000000180026bf4     LIBCMT:initnum.obj
 0004:00000c00       $pdata$__free_lc_time      0000000180026c00     LIBCMT:inittime.obj
 0004:00000c0c       $pdata$?__crtLCMapStringA_stat@@YAHPEAUlocaleinfo_struct@@PEB_WKPEBDHPEADHHH@Z 0000000180026c0c     LIBCMT:a_map.obj
 0004:00000c18       $pdata$__crtLCMapStringA   0000000180026c18     LIBCMT:a_map.obj
 0004:00000c24       $pdata$?__crtGetStringTypeA_stat@@YAHPEAUlocaleinfo_struct@@KPEBDHPEAGHH@Z 0000000180026c24     LIBCMT:a_str.obj
 0004:00000c30       $pdata$__crtGetStringTypeA 0000000180026c30     LIBCMT:a_str.obj
 0004:00000c3c       $pdata$_isctype_l          0000000180026c3c     LIBCMT:isctype.obj
 0004:00000c48       $pdata$_isleadbyte_l       0000000180026c48     LIBCMT:_wctype.obj
 0004:00000c54       $pdata$isleadbyte          0000000180026c54     LIBCMT:_wctype.obj
 0004:00000c6c       $pdata$?x_ismbbtype_l@@YAHPEAUlocaleinfo_struct@@IHH@Z 0000000180026c6c     LIBCMT:ismbbyte.obj
 0004:00000c84       $pdata$isdigit             0000000180026c84     LIBCMT:_ctype.obj
 0004:00000c90       $pdata$strrchr             0000000180026c90     LIBCMT:strrchr.obj
 0004:00000c9c       $pdata$_fptostr            0000000180026c9c     LIBCMT:_fptostr.obj
 0004:00000ca8       $pdata$__crt_atoflt_l      0000000180026ca8     LIBCMT:atodbl.obj
 0004:00000cb4       $pdata$_atodbl_l           0000000180026cb4     LIBCMT:atodbl.obj
 0004:00000cc0       $pdata$__dtold             0000000180026cc0     LIBCMT:cfout.obj
 0004:00000ccc       $pdata$_fltout2            0000000180026ccc     LIBCMT:cfout.obj
 0004:00000cd8       $pdata$_isatty             0000000180026cd8     LIBCMT:isatty.obj
 0004:00000ce4       $pdata$_fclose_nolock      0000000180026ce4     LIBCMT:fclose.obj
 0004:00000cf0       $pdata$fclose              0000000180026cf0     LIBCMT:fclose.obj
 0004:00000cfc       $pdata$__lock_fhandle      0000000180026cfc     LIBCMT:osfinfo.obj
 0004:00000d08       $pdata$_free_osfhnd        0000000180026d08     LIBCMT:osfinfo.obj
 0004:00000d14       $pdata$_get_osfhandle      0000000180026d14     LIBCMT:osfinfo.obj
 0004:00000d20       $pdata$_lseeki64           0000000180026d20     LIBCMT:lseeki64.obj
 0004:00000d2c       $pdata$_lseeki64_nolock    0000000180026d2c     LIBCMT:lseeki64.obj
 0004:00000d38       $pdata$_mbtowc_l           0000000180026d38     LIBCMT:mbtowc.obj
 0004:00000d44       $pdata$_putwch_nolock      0000000180026d44     LIBCMT:putwch.obj
 0004:00000d5c       $pdata$_fputwc_nolock      0000000180026d5c     LIBCMT:fputwc.obj
 0004:00000d68       $pdata$_getbuf             0000000180026d68     LIBCMT:_getbuf.obj
 0004:00000d74       $pdata$_ld12tod            0000000180026d74     LIBCMT:intrncvt.obj
 0004:00000d80       $pdata$_ld12tof            0000000180026d80     LIBCMT:intrncvt.obj
 0004:00000d8c       $pdata$__strgtold12_l      0000000180026d8c     LIBCMT:strgtold.obj
 0004:00000d98       $pdata$$I10_OUTPUT         0000000180026d98     LIBCMT:x10fout.obj
 0004:00000da4       $pdata$_close              0000000180026da4     LIBCMT:close.obj
 0004:00000db0       $pdata$_close_nolock       0000000180026db0     LIBCMT:close.obj
 0004:00000dbc       $pdata$__termconout        0000000180026dbc     LIBCMT:initcon.obj
 0004:00000dc8       $pdata$__initconout        0000000180026dc8     LIBCMT:initcon.obj
 0004:00000dd4       $pdata$_wctomb_s_l         0000000180026dd4     LIBCMT:wctomb.obj
 0004:00000de0       $pdata$wctomb_s            0000000180026de0     LIBCMT:wctomb.obj
 0004:00000dec       $pdata$_flswbuf            0000000180026dec     LIBCMT:_flswbuf.obj
 0004:00000df8       $pdata$__mtold12           0000000180026df8     LIBCMT:mantold.obj
 0004:00000e04       $pdata$__delayLoadHelper2  0000000180026e04     DelayImp:delayhlp.obj
 0004:00000e10       $pdata$_onexit$fin$0       0000000180026e10     LIBCMT:onexit.obj
 0004:00000e1c       $pdata$_CRT_INIT$fin$0     0000000180026e1c     LIBCMT:dllcrt0.obj
 0004:00000e28       $pdata$__DllMainCRTStartup$filt$0 0000000180026e28     LIBCMT:dllcrt0.obj
 0004:00000e34       $pdata$doexit$fin$0        0000000180026e34     LIBCMT:crt0dat.obj
 0004:00000e40       $pdata$fflush$fin$0        0000000180026e40     LIBCMT:fflush.obj
 0004:00000e40       $pdata$fclose$fin$0        0000000180026e40     LIBCMT:fflush.obj
 0004:00000e4c       $pdata$flsall$fin$0        0000000180026e4c     LIBCMT:fflush.obj
 0004:00000e58       $pdata$flsall$fin$1        0000000180026e58     LIBCMT:fflush.obj
 0004:00000e64       $pdata$setvbuf$fin$0       0000000180026e64     LIBCMT:setvbuf.obj
 0004:00000e70       $pdata$fwprintf$fin$0      0000000180026e70     LIBCMT:fwprintf.obj
 0004:00000e7c       $pdata$raise$fin$0         0000000180026e7c     LIBCMT:winsig.obj
 0004:00000e88       $pdata$__updatetmbcinfo$fin$0 0000000180026e88     LIBCMT:mbctype.obj
 0004:00000e88       $pdata$_setmbcp$fin$0      0000000180026e88     LIBCMT:mbctype.obj
 0004:00000e94       $pdata$_freefls$fin$1      0000000180026e94     LIBCMT:tidtable.obj
 0004:00000e94       $pdata$_initptd$fin$1      0000000180026e94     LIBCMT:tidtable.obj
 0004:00000ea0       $pdata$_initptd$fin$0      0000000180026ea0     LIBCMT:tidtable.obj
 0004:00000ea0       $pdata$_freefls$fin$0      0000000180026ea0     LIBCMT:tidtable.obj
 0004:00000eac       $pdata$__updatetlocinfo$fin$0 0000000180026eac     LIBCMT:wsetloca.obj
 0004:00000eac       $pdata$_locterm$fin$0      0000000180026eac     LIBCMT:wsetloca.obj
 0004:00000eb8       $pdata$_ioinit$fin$0       0000000180026eb8     LIBCMT:ioinit.obj
 0004:00000ec4       $pdata$__DestructExceptionObject$filt$0 0000000180026ec4     LIBCMT:frame.obj
 0004:00000ed0       $pdata$?fin$0@?0??_Type_info_dtor@type_info@@CAXPEAV1@@Z@4HA 0000000180026ed0     LIBCMT:typname.obj
 0004:00000edc       $pdata$_mtinitlocknum$fin$0 0000000180026edc     LIBCMT:mlock.obj
 0004:00000ee8       $pdata$_IsNonwritableInCurrentImage$filt$0 0000000180026ee8     LIBCMT:pesect.obj
 0004:00000ef4       $pdata$_fcloseall$fin$0    0000000180026ef4     LIBCMT:closeall.obj
 0004:00000f00       $pdata$_close$fin$0        0000000180026f00     LIBCMT:commit.obj
 0004:00000f00       $pdata$_commit$fin$0       0000000180026f00     LIBCMT:commit.obj
 0004:00000f0c       $pdata$__lock_fhandle$fin$0 0000000180026f0c     LIBCMT:osfinfo.obj
 0004:00000f18       $pdata$_write$fin$0        0000000180026f18     LIBCMT:lseeki64.obj
 0004:00000f18       $pdata$_lseeki64$fin$0     0000000180026f18     LIBCMT:lseeki64.obj
 0004:00000f24       $pdata$??__Fcbmap@?1??New@?$Factory@VFunctionTemplate@v8@@@imp@Nan@@SA?AV?$Local@VFunctionTemplate@v8@@@v8@@P6AXAEBV?$FunctionCallbackInfo@VValue@v8@@@3@@ZV?$Local@VValue@v8@@@5@V?$Local@VSignature@v8@@@5@@Z@YAXXZ 0000000180026f24     bufferutil.obj
 0004:00000f30       $pdata$??__Fhaystack@?1???$GetWrapper@P6AXAEBV?$FunctionCallbackInfo@VValue@v8@@@Nan@@@ZUFunctionWrapper@imp@2@@imp@Nan@@YAPEAUFunctionWrapper@01@P6AXAEBV?$FunctionCallbackInfo@VValue@v8@@@1@@Z@Z@YAXXZ 0000000180026f30     bufferutil.obj
 0005:00000060       $R000000                   0000000180027060     * linker generated manifest res *

 Exports

  ordinal    name

        1    ??0Allocator@ArrayBuffer@v8@@QEAA@AEBV012@@Z (public: __cdecl v8::ArrayBuffer::Allocator::Allocator(class v8::ArrayBuffer::Allocator const &))
        2    ??0Allocator@ArrayBuffer@v8@@QEAA@XZ (public: __cdecl v8::ArrayBuffer::Allocator::Allocator(void))
        3    ??0CachedData@ScriptCompiler@v8@@QEAA@XZ (public: __cdecl v8::ScriptCompiler::CachedData::CachedData(void))
        4    ??0Contents@ArrayBuffer@v8@@QEAA@XZ (public: __cdecl v8::ArrayBuffer::Contents::Contents(void))
        5    ??0Contents@SharedArrayBuffer@v8@@QEAA@XZ (public: __cdecl v8::SharedArrayBuffer::Contents::Contents(void))
        6    ??0ExtensionConfiguration@v8@@QEAA@HQEAPEBD@Z (public: __cdecl v8::ExtensionConfiguration::ExtensionConfiguration(int,char const * * const))
        7    ??0ExtensionConfiguration@v8@@QEAA@XZ (public: __cdecl v8::ExtensionConfiguration::ExtensionConfiguration(void))
        8    ??0ExternalOneByteStringResource@String@v8@@IEAA@XZ (protected: __cdecl v8::String::ExternalOneByteStringResource::ExternalOneByteStringResource(void))
        9    ??0ExternalOneByteStringResourceImpl@v8@@QEAA@PEBD_K@Z (public: __cdecl v8::ExternalOneByteStringResourceImpl::ExternalOneByteStringResourceImpl(char const *,unsigned __int64))
       10    ??0ExternalOneByteStringResourceImpl@v8@@QEAA@XZ (public: __cdecl v8::ExternalOneByteStringResourceImpl::ExternalOneByteStringResourceImpl(void))
       11    ??0ExternalResourceVisitor@v8@@QEAA@AEBV01@@Z (public: __cdecl v8::ExternalResourceVisitor::ExternalResourceVisitor(class v8::ExternalResourceVisitor const &))
       12    ??0ExternalResourceVisitor@v8@@QEAA@XZ (public: __cdecl v8::ExternalResourceVisitor::ExternalResourceVisitor(void))
       13    ??0ExternalSourceStream@ScriptCompiler@v8@@QEAA@AEBV012@@Z (public: __cdecl v8::ScriptCompiler::ExternalSourceStream::ExternalSourceStream(class v8::ScriptCompiler::ExternalSourceStream const &))
       14    ??0ExternalSourceStream@ScriptCompiler@v8@@QEAA@XZ (public: __cdecl v8::ScriptCompiler::ExternalSourceStream::ExternalSourceStream(void))
       15    ??0ExternalStringResource@String@v8@@IEAA@XZ (protected: __cdecl v8::String::ExternalStringResource::ExternalStringResource(void))
       16    ??0ExternalStringResourceBase@String@v8@@IEAA@XZ (protected: __cdecl v8::String::ExternalStringResourceBase::ExternalStringResourceBase(void))
       17    ??0HandleScope@v8@@IEAA@XZ (protected: __cdecl v8::HandleScope::HandleScope(void))
       18    ??0Locker@v8@@QEAA@PEAVIsolate@1@@Z (public: __cdecl v8::Locker::Locker(class v8::Isolate *))
       19    ??0PersistentHandleVisitor@v8@@QEAA@AEBV01@@Z (public: __cdecl v8::PersistentHandleVisitor::PersistentHandleVisitor(class v8::PersistentHandleVisitor const &))
       20    ??0PersistentHandleVisitor@v8@@QEAA@XZ (public: __cdecl v8::PersistentHandleVisitor::PersistentHandleVisitor(void))
       21    ??0Scope@Isolate@v8@@QEAA@PEAV12@@Z (public: __cdecl v8::Isolate::Scope::Scope(class v8::Isolate *))
       22    ??0Unlocker@v8@@QEAA@PEAVIsolate@1@@Z (public: __cdecl v8::Unlocker::Unlocker(class v8::Isolate *))
       23    ??1Allocator@ArrayBuffer@v8@@UEAA@XZ (public: virtual __cdecl v8::ArrayBuffer::Allocator::~Allocator(void))
       24    ??1EscapableHandleScope@v8@@QEAA@XZ (public: __cdecl v8::EscapableHandleScope::~EscapableHandleScope(void))
       25    ??1Extension@v8@@UEAA@XZ (public: virtual __cdecl v8::Extension::~Extension(void))
       26    ??1ExternalOneByteStringResource@String@v8@@UEAA@XZ (public: virtual __cdecl v8::String::ExternalOneByteStringResource::~ExternalOneByteStringResource(void))
       27    ??1ExternalOneByteStringResourceImpl@v8@@UEAA@XZ (public: virtual __cdecl v8::ExternalOneByteStringResourceImpl::~ExternalOneByteStringResourceImpl(void))
       28    ??1ExternalResourceVisitor@v8@@UEAA@XZ (public: virtual __cdecl v8::ExternalResourceVisitor::~ExternalResourceVisitor(void))
       29    ??1ExternalSourceStream@ScriptCompiler@v8@@UEAA@XZ (public: virtual __cdecl v8::ScriptCompiler::ExternalSourceStream::~ExternalSourceStream(void))
       30    ??1ExternalStringResource@String@v8@@UEAA@XZ (public: virtual __cdecl v8::String::ExternalStringResource::~ExternalStringResource(void))
       31    ??1ExternalStringResourceBase@String@v8@@UEAA@XZ (public: virtual __cdecl v8::String::ExternalStringResourceBase::~ExternalStringResourceBase(void))
       32    ??1PersistentHandleVisitor@v8@@UEAA@XZ (public: virtual __cdecl v8::PersistentHandleVisitor::~PersistentHandleVisitor(void))
       33    ??1Scope@Isolate@v8@@QEAA@XZ (public: __cdecl v8::Isolate::Scope::~Scope(void))
       34    ??4AccessorSignature@v8@@QEAAAEAV01@AEBV01@@Z (public: class v8::AccessorSignature & __cdecl v8::AccessorSignature::operator=(class v8::AccessorSignature const &))
       35    ??4Allocator@ArrayBuffer@v8@@QEAAAEAV012@AEBV012@@Z (public: class v8::ArrayBuffer::Allocator & __cdecl v8::ArrayBuffer::Allocator::operator=(class v8::ArrayBuffer::Allocator const &))
       36    ??4Array@v8@@QEAAAEAV01@AEBV01@@Z (public: class v8::Array & __cdecl v8::Array::operator=(class v8::Array const &))
       37    ??4ArrayBuffer@v8@@QEAAAEAV01@AEBV01@@Z (public: class v8::ArrayBuffer & __cdecl v8::ArrayBuffer::operator=(class v8::ArrayBuffer const &))
       38    ??4ArrayBufferView@v8@@QEAAAEAV01@AEBV01@@Z (public: class v8::ArrayBufferView & __cdecl v8::ArrayBufferView::operator=(class v8::ArrayBufferView const &))
       39    ??4Boolean@v8@@QEAAAEAV01@AEBV01@@Z (public: class v8::Boolean & __cdecl v8::Boolean::operator=(class v8::Boolean const &))
       40    ??4BooleanObject@v8@@QEAAAEAV01@AEBV01@@Z (public: class v8::BooleanObject & __cdecl v8::BooleanObject::operator=(class v8::BooleanObject const &))
       41    ??4Contents@ArrayBuffer@v8@@QEAAAEAV012@AEBV012@@Z (public: class v8::ArrayBuffer::Contents & __cdecl v8::ArrayBuffer::Contents::operator=(class v8::ArrayBuffer::Contents const &))
       42    ??4Contents@SharedArrayBuffer@v8@@QEAAAEAV012@AEBV012@@Z (public: class v8::SharedArrayBuffer::Contents & __cdecl v8::SharedArrayBuffer::Contents::operator=(class v8::SharedArrayBuffer::Contents const &))
       43    ??4Context@v8@@QEAAAEAV01@AEBV01@@Z (public: class v8::Context & __cdecl v8::Context::operator=(class v8::Context const &))
       44    ??4Data@v8@@QEAAAEAV01@AEBV01@@Z (public: class v8::Data & __cdecl v8::Data::operator=(class v8::Data const &))
       45    ??4DataView@v8@@QEAAAEAV01@AEBV01@@Z (public: class v8::DataView & __cdecl v8::DataView::operator=(class v8::DataView const &))
       46    ??4Date@v8@@QEAAAEAV01@AEBV01@@Z (public: class v8::Date & __cdecl v8::Date::operator=(class v8::Date const &))
       47    ??4Exception@v8@@QEAAAEAV01@AEBV01@@Z (public: class v8::Exception & __cdecl v8::Exception::operator=(class v8::Exception const &))
       48    ??4External@v8@@QEAAAEAV01@AEBV01@@Z (public: class v8::External & __cdecl v8::External::operator=(class v8::External const &))
       49    ??4ExternalResourceVisitor@v8@@QEAAAEAV01@AEBV01@@Z (public: class v8::ExternalResourceVisitor & __cdecl v8::ExternalResourceVisitor::operator=(class v8::ExternalResourceVisitor const &))
       50    ??4ExternalSourceStream@ScriptCompiler@v8@@QEAAAEAV012@AEBV012@@Z (public: class v8::ScriptCompiler::ExternalSourceStream & __cdecl v8::ScriptCompiler::ExternalSourceStream::operator=(class v8::ScriptCompiler::ExternalSourceStream const &))
       51    ??4Float32Array@v8@@QEAAAEAV01@AEBV01@@Z (public: class v8::Float32Array & __cdecl v8::Float32Array::operator=(class v8::Float32Array const &))
       52    ??4Float64Array@v8@@QEAAAEAV01@AEBV01@@Z (public: class v8::Float64Array & __cdecl v8::Float64Array::operator=(class v8::Float64Array const &))
       53    ??4Function@v8@@QEAAAEAV01@AEBV01@@Z (public: class v8::Function & __cdecl v8::Function::operator=(class v8::Function const &))
       54    ??4FunctionTemplate@v8@@QEAAAEAV01@AEBV01@@Z (public: class v8::FunctionTemplate & __cdecl v8::FunctionTemplate::operator=(class v8::FunctionTemplate const &))
       55    ??4HeapObjectStatistics@v8@@QEAAAEAV01@AEBV01@@Z (public: class v8::HeapObjectStatistics & __cdecl v8::HeapObjectStatistics::operator=(class v8::HeapObjectStatistics const &))
       56    ??4HeapSpaceStatistics@v8@@QEAAAEAV01@AEBV01@@Z (public: class v8::HeapSpaceStatistics & __cdecl v8::HeapSpaceStatistics::operator=(class v8::HeapSpaceStatistics const &))
       57    ??4HeapStatistics@v8@@QEAAAEAV01@AEBV01@@Z (public: class v8::HeapStatistics & __cdecl v8::HeapStatistics::operator=(class v8::HeapStatistics const &))
       58    ??4Int16Array@v8@@QEAAAEAV01@AEBV01@@Z (public: class v8::Int16Array & __cdecl v8::Int16Array::operator=(class v8::Int16Array const &))
       59    ??4Int32@v8@@QEAAAEAV01@AEBV01@@Z (public: class v8::Int32 & __cdecl v8::Int32::operator=(class v8::Int32 const &))
       60    ??4Int32Array@v8@@QEAAAEAV01@AEBV01@@Z (public: class v8::Int32Array & __cdecl v8::Int32Array::operator=(class v8::Int32Array const &))
       61    ??4Int8Array@v8@@QEAAAEAV01@AEBV01@@Z (public: class v8::Int8Array & __cdecl v8::Int8Array::operator=(class v8::Int8Array const &))
       62    ??4Integer@v8@@QEAAAEAV01@AEBV01@@Z (public: class v8::Integer & __cdecl v8::Integer::operator=(class v8::Integer const &))
       63    ??4JSON@v8@@QEAAAEAV01@AEBV01@@Z (public: class v8::JSON & __cdecl v8::JSON::operator=(class v8::JSON const &))
       64    ??4Map@v8@@QEAAAEAV01@AEBV01@@Z (public: class v8::Map & __cdecl v8::Map::operator=(class v8::Map const &))
       65    ??4Message@v8@@QEAAAEAV01@AEBV01@@Z (public: class v8::Message & __cdecl v8::Message::operator=(class v8::Message const &))
       66    ??4Name@v8@@QEAAAEAV01@AEBV01@@Z (public: class v8::Name & __cdecl v8::Name::operator=(class v8::Name const &))
       67    ??4NativeWeakMap@v8@@QEAAAEAV01@AEBV01@@Z (public: class v8::NativeWeakMap & __cdecl v8::NativeWeakMap::operator=(class v8::NativeWeakMap const &))
       68    ??4Number@v8@@QEAAAEAV01@AEBV01@@Z (public: class v8::Number & __cdecl v8::Number::operator=(class v8::Number const &))
       69    ??4NumberObject@v8@@QEAAAEAV01@AEBV01@@Z (public: class v8::NumberObject & __cdecl v8::NumberObject::operator=(class v8::NumberObject const &))
       70    ??4Object@v8@@QEAAAEAV01@AEBV01@@Z (public: class v8::Object & __cdecl v8::Object::operator=(class v8::Object const &))
       71    ??4ObjectTemplate@v8@@QEAAAEAV01@AEBV01@@Z (public: class v8::ObjectTemplate & __cdecl v8::ObjectTemplate::operator=(class v8::ObjectTemplate const &))
       72    ??4PersistentHandleVisitor@v8@@QEAAAEAV01@AEBV01@@Z (public: class v8::PersistentHandleVisitor & __cdecl v8::PersistentHandleVisitor::operator=(class v8::PersistentHandleVisitor const &))
       73    ??4Primitive@v8@@QEAAAEAV01@AEBV01@@Z (public: class v8::Primitive & __cdecl v8::Primitive::operator=(class v8::Primitive const &))
       74    ??4Promise@v8@@QEAAAEAV01@AEBV01@@Z (public: class v8::Promise & __cdecl v8::Promise::operator=(class v8::Promise const &))
       75    ??4RegExp@v8@@QEAAAEAV01@AEBV01@@Z (public: class v8::RegExp & __cdecl v8::RegExp::operator=(class v8::RegExp const &))
       76    ??4Resolver@Promise@v8@@QEAAAEAV012@AEBV012@@Z (public: class v8::Promise::Resolver & __cdecl v8::Promise::Resolver::operator=(class v8::Promise::Resolver const &))
       77    ??4ResourceConstraints@v8@@QEAAAEAV01@AEBV01@@Z (public: class v8::ResourceConstraints & __cdecl v8::ResourceConstraints::operator=(class v8::ResourceConstraints const &))
       78    ??4Script@v8@@QEAAAEAV01@AEBV01@@Z (public: class v8::Script & __cdecl v8::Script::operator=(class v8::Script const &))
       79    ??4ScriptCompiler@v8@@QEAAAEAV01@AEBV01@@Z (public: class v8::ScriptCompiler & __cdecl v8::ScriptCompiler::operator=(class v8::ScriptCompiler const &))
       80    ??4Set@v8@@QEAAAEAV01@AEBV01@@Z (public: class v8::Set & __cdecl v8::Set::operator=(class v8::Set const &))
       81    ??4SharedArrayBuffer@v8@@QEAAAEAV01@AEBV01@@Z (public: class v8::SharedArrayBuffer & __cdecl v8::SharedArrayBuffer::operator=(class v8::SharedArrayBuffer const &))
       82    ??4Signature@v8@@QEAAAEAV01@AEBV01@@Z (public: class v8::Signature & __cdecl v8::Signature::operator=(class v8::Signature const &))
       83    ??4StackFrame@v8@@QEAAAEAV01@AEBV01@@Z (public: class v8::StackFrame & __cdecl v8::StackFrame::operator=(class v8::StackFrame const &))
       84    ??4StackTrace@v8@@QEAAAEAV01@AEBV01@@Z (public: class v8::StackTrace & __cdecl v8::StackTrace::operator=(class v8::StackTrace const &))
       85    ??4StartupData@v8@@QEAAAEAV01@AEBV01@@Z (public: class v8::StartupData & __cdecl v8::StartupData::operator=(class v8::StartupData const &))
       86    ??4String@v8@@QEAAAEAV01@AEBV01@@Z (public: class v8::String & __cdecl v8::String::operator=(class v8::String const &))
       87    ??4StringObject@v8@@QEAAAEAV01@AEBV01@@Z (public: class v8::StringObject & __cdecl v8::StringObject::operator=(class v8::StringObject const &))
       88    ??4Symbol@v8@@QEAAAEAV01@AEBV01@@Z (public: class v8::Symbol & __cdecl v8::Symbol::operator=(class v8::Symbol const &))
       89    ??4SymbolObject@v8@@QEAAAEAV01@AEBV01@@Z (public: class v8::SymbolObject & __cdecl v8::SymbolObject::operator=(class v8::SymbolObject const &))
       90    ??4Template@v8@@QEAAAEAV01@AEBV01@@Z (public: class v8::Template & __cdecl v8::Template::operator=(class v8::Template const &))
       91    ??4TypeSwitch@v8@@QEAAAEAV01@AEBV01@@Z (public: class v8::TypeSwitch & __cdecl v8::TypeSwitch::operator=(class v8::TypeSwitch const &))
       92    ??4TypedArray@v8@@QEAAAEAV01@AEBV01@@Z (public: class v8::TypedArray & __cdecl v8::TypedArray::operator=(class v8::TypedArray const &))
       93    ??4Uint16Array@v8@@QEAAAEAV01@AEBV01@@Z (public: class v8::Uint16Array & __cdecl v8::Uint16Array::operator=(class v8::Uint16Array const &))
       94    ??4Uint32@v8@@QEAAAEAV01@AEBV01@@Z (public: class v8::Uint32 & __cdecl v8::Uint32::operator=(class v8::Uint32 const &))
       95    ??4Uint32Array@v8@@QEAAAEAV01@AEBV01@@Z (public: class v8::Uint32Array & __cdecl v8::Uint32Array::operator=(class v8::Uint32Array const &))
       96    ??4Uint8Array@v8@@QEAAAEAV01@AEBV01@@Z (public: class v8::Uint8Array & __cdecl v8::Uint8Array::operator=(class v8::Uint8Array const &))
       97    ??4Uint8ClampedArray@v8@@QEAAAEAV01@AEBV01@@Z (public: class v8::Uint8ClampedArray & __cdecl v8::Uint8ClampedArray::operator=(class v8::Uint8ClampedArray const &))
       98    ??4UnboundScript@v8@@QEAAAEAV01@AEBV01@@Z (public: class v8::UnboundScript & __cdecl v8::UnboundScript::operator=(class v8::UnboundScript const &))
       99    ??4Unlocker@v8@@QEAAAEAV01@AEBV01@@Z (public: class v8::Unlocker & __cdecl v8::Unlocker::operator=(class v8::Unlocker const &))
      100    ??4V8@v8@@QEAAAEAV01@AEBV01@@Z (public: class v8::V8 & __cdecl v8::V8::operator=(class v8::V8 const &))
      101    ??4Value@v8@@QEAAAEAV01@AEBV01@@Z (public: class v8::Value & __cdecl v8::Value::operator=(class v8::Value const &))
      102    ??DUtf8Value@String@v8@@QEAAPEADXZ (public: char * __cdecl v8::String::Utf8Value::operator*(void))
      103    ??DUtf8Value@String@v8@@QEBAPEBDXZ (public: char const * __cdecl v8::String::Utf8Value::operator*(void)const )
      104    ??DValue@String@v8@@QEAAPEAGXZ (public: unsigned short * __cdecl v8::String::Value::operator*(void))
      105    ??DValue@String@v8@@QEBAPEBGXZ (public: unsigned short const * __cdecl v8::String::Value::operator*(void)const )
      106    ??_7Allocator@ArrayBuffer@v8@@6B@ (const v8::ArrayBuffer::Allocator::`vftable')
      107    ??_7Extension@v8@@6B@ (const v8::Extension::`vftable')
      108    ??_7ExternalOneByteStringResource@String@v8@@6B@ (const v8::String::ExternalOneByteStringResource::`vftable')
      109    ??_7ExternalOneByteStringResourceImpl@v8@@6B@ (const v8::ExternalOneByteStringResourceImpl::`vftable')
      110    ??_7ExternalResourceVisitor@v8@@6B@ (const v8::ExternalResourceVisitor::`vftable')
      111    ??_7ExternalSourceStream@ScriptCompiler@v8@@6B@ (const v8::ScriptCompiler::ExternalSourceStream::`vftable')
      112    ??_7ExternalStringResource@String@v8@@6B@ (const v8::String::ExternalStringResource::`vftable')
      113    ??_7ExternalStringResourceBase@String@v8@@6B@ (const v8::String::ExternalStringResourceBase::`vftable')
      114    ??_7PersistentHandleVisitor@v8@@6B@ (const v8::PersistentHandleVisitor::`vftable')
      115    ?AddMemoryAllocationCallback@V8@v8@@SAXP6AXW4ObjectSpace@2@W4AllocationAction@2@H@Z01@Z (public: static void __cdecl v8::V8::AddMemoryAllocationCallback(void (__cdecl*)(enum v8::ObjectSpace,enum v8::AllocationAction,int),enum v8::ObjectSpace,enum v8::AllocationAction))
      116    ?AddMessageListener@V8@v8@@SA_NP6AXV?$Local@VMessage@v8@@@2@V?$Local@VValue@v8@@@2@@Z1@Z (public: static bool __cdecl v8::V8::AddMessageListener(void (__cdecl*)(class v8::Local<class v8::Message>,class v8::Local<class v8::Value>),class v8::Local<class v8::Value>))
      117    ?AdjustAmountOfExternalAllocatedMemory@Isolate@v8@@QEAA_J_J@Z (public: __int64 __cdecl v8::Isolate::AdjustAmountOfExternalAllocatedMemory(__int64))
      118    ?ByteLength@Contents@ArrayBuffer@v8@@QEBA_KXZ (public: unsigned __int64 __cdecl v8::ArrayBuffer::Contents::ByteLength(void)const )
      119    ?ByteLength@Contents@SharedArrayBuffer@v8@@QEBA_KXZ (public: unsigned __int64 __cdecl v8::SharedArrayBuffer::Contents::ByteLength(void)const )
      120    ?CancelTerminateExecution@V8@v8@@SAXPEAVIsolate@2@@Z (public: static void __cdecl v8::V8::CancelTerminateExecution(class v8::Isolate *))
      121    ?Cast@Array@v8@@SAPEAV12@PEAVValue@2@@Z (public: static class v8::Array * __cdecl v8::Array::Cast(class v8::Value *))
      122    ?Cast@ArrayBuffer@v8@@SAPEAV12@PEAVValue@2@@Z (public: static class v8::ArrayBuffer * __cdecl v8::ArrayBuffer::Cast(class v8::Value *))
      123    ?Cast@ArrayBufferView@v8@@SAPEAV12@PEAVValue@2@@Z (public: static class v8::ArrayBufferView * __cdecl v8::ArrayBufferView::Cast(class v8::Value *))
      124    ?Cast@Boolean@v8@@SAPEAV12@PEAVValue@2@@Z (public: static class v8::Boolean * __cdecl v8::Boolean::Cast(class v8::Value *))
      125    ?Cast@BooleanObject@v8@@SAPEAV12@PEAVValue@2@@Z (public: static class v8::BooleanObject * __cdecl v8::BooleanObject::Cast(class v8::Value *))
      126    ?Cast@DataView@v8@@SAPEAV12@PEAVValue@2@@Z (public: static class v8::DataView * __cdecl v8::DataView::Cast(class v8::Value *))
      127    ?Cast@Date@v8@@SAPEAV12@PEAVValue@2@@Z (public: static class v8::Date * __cdecl v8::Date::Cast(class v8::Value *))
      128    ?Cast@External@v8@@SAPEAV12@PEAVValue@2@@Z (public: static class v8::External * __cdecl v8::External::Cast(class v8::Value *))
      129    ?Cast@Float32Array@v8@@SAPEAV12@PEAVValue@2@@Z (public: static class v8::Float32Array * __cdecl v8::Float32Array::Cast(class v8::Value *))
      130    ?Cast@Float64Array@v8@@SAPEAV12@PEAVValue@2@@Z (public: static class v8::Float64Array * __cdecl v8::Float64Array::Cast(class v8::Value *))
      131    ?Cast@Function@v8@@SAPEAV12@PEAVValue@2@@Z (public: static class v8::Function * __cdecl v8::Function::Cast(class v8::Value *))
      132    ?Cast@Int16Array@v8@@SAPEAV12@PEAVValue@2@@Z (public: static class v8::Int16Array * __cdecl v8::Int16Array::Cast(class v8::Value *))
      133    ?Cast@Int32@v8@@SAPEAV12@PEAVValue@2@@Z (public: static class v8::Int32 * __cdecl v8::Int32::Cast(class v8::Value *))
      134    ?Cast@Int32Array@v8@@SAPEAV12@PEAVValue@2@@Z (public: static class v8::Int32Array * __cdecl v8::Int32Array::Cast(class v8::Value *))
      135    ?Cast@Int8Array@v8@@SAPEAV12@PEAVValue@2@@Z (public: static class v8::Int8Array * __cdecl v8::Int8Array::Cast(class v8::Value *))
      136    ?Cast@Integer@v8@@SAPEAV12@PEAVValue@2@@Z (public: static class v8::Integer * __cdecl v8::Integer::Cast(class v8::Value *))
      137    ?Cast@Map@v8@@SAPEAV12@PEAVValue@2@@Z (public: static class v8::Map * __cdecl v8::Map::Cast(class v8::Value *))
      138    ?Cast@Name@v8@@SAPEAV12@PEAVValue@2@@Z (public: static class v8::Name * __cdecl v8::Name::Cast(class v8::Value *))
      139    ?Cast@Number@v8@@SAPEAV12@PEAVValue@2@@Z (public: static class v8::Number * __cdecl v8::Number::Cast(class v8::Value *))
      140    ?Cast@NumberObject@v8@@SAPEAV12@PEAVValue@2@@Z (public: static class v8::NumberObject * __cdecl v8::NumberObject::Cast(class v8::Value *))
      141    ?Cast@Object@v8@@SAPEAV12@PEAVValue@2@@Z (public: static class v8::Object * __cdecl v8::Object::Cast(class v8::Value *))
      142    ?Cast@Promise@v8@@SAPEAV12@PEAVValue@2@@Z (public: static class v8::Promise * __cdecl v8::Promise::Cast(class v8::Value *))
      143    ?Cast@RegExp@v8@@SAPEAV12@PEAVValue@2@@Z (public: static class v8::RegExp * __cdecl v8::RegExp::Cast(class v8::Value *))
      144    ?Cast@Resolver@Promise@v8@@SAPEAV123@PEAVValue@3@@Z (public: static class v8::Promise::Resolver * __cdecl v8::Promise::Resolver::Cast(class v8::Value *))
      145    ?Cast@Set@v8@@SAPEAV12@PEAVValue@2@@Z (public: static class v8::Set * __cdecl v8::Set::Cast(class v8::Value *))
      146    ?Cast@SharedArrayBuffer@v8@@SAPEAV12@PEAVValue@2@@Z (public: static class v8::SharedArrayBuffer * __cdecl v8::SharedArrayBuffer::Cast(class v8::Value *))
      147    ?Cast@String@v8@@SAPEAV12@PEAVValue@2@@Z (public: static class v8::String * __cdecl v8::String::Cast(class v8::Value *))
      148    ?Cast@StringObject@v8@@SAPEAV12@PEAVValue@2@@Z (public: static class v8::StringObject * __cdecl v8::StringObject::Cast(class v8::Value *))
      149    ?Cast@Symbol@v8@@SAPEAV12@PEAVValue@2@@Z (public: static class v8::Symbol * __cdecl v8::Symbol::Cast(class v8::Value *))
      150    ?Cast@SymbolObject@v8@@SAPEAV12@PEAVValue@2@@Z (public: static class v8::SymbolObject * __cdecl v8::SymbolObject::Cast(class v8::Value *))
      151    ?Cast@TypedArray@v8@@SAPEAV12@PEAVValue@2@@Z (public: static class v8::TypedArray * __cdecl v8::TypedArray::Cast(class v8::Value *))
      152    ?Cast@Uint16Array@v8@@SAPEAV12@PEAVValue@2@@Z (public: static class v8::Uint16Array * __cdecl v8::Uint16Array::Cast(class v8::Value *))
      153    ?Cast@Uint32@v8@@SAPEAV12@PEAVValue@2@@Z (public: static class v8::Uint32 * __cdecl v8::Uint32::Cast(class v8::Value *))
      154    ?Cast@Uint32Array@v8@@SAPEAV12@PEAVValue@2@@Z (public: static class v8::Uint32Array * __cdecl v8::Uint32Array::Cast(class v8::Value *))
      155    ?Cast@Uint8Array@v8@@SAPEAV12@PEAVValue@2@@Z (public: static class v8::Uint8Array * __cdecl v8::Uint8Array::Cast(class v8::Value *))
      156    ?Cast@Uint8ClampedArray@v8@@SAPEAV12@PEAVValue@2@@Z (public: static class v8::Uint8ClampedArray * __cdecl v8::Uint8ClampedArray::Cast(class v8::Value *))
      157    ?Data@Contents@ArrayBuffer@v8@@QEBAPEAXXZ (public: void * __cdecl v8::ArrayBuffer::Contents::Data(void)const )
      158    ?Data@Contents@SharedArrayBuffer@v8@@QEBAPEAXXZ (public: void * __cdecl v8::SharedArrayBuffer::Contents::Data(void)const )
      159    ?Dispose@ExternalStringResourceBase@String@v8@@MEAAXXZ (protected: virtual void __cdecl v8::String::ExternalStringResourceBase::Dispose(void))
      160    ?Empty@String@v8@@SA?AV?$Local@VString@v8@@@2@PEAVIsolate@2@@Z (public: static class v8::Local<class v8::String> __cdecl v8::String::Empty(class v8::Isolate *))
      161    ?GetAlignedPointerFromEmbedderData@Context@v8@@QEAAPEAXH@Z (public: void * __cdecl v8::Context::GetAlignedPointerFromEmbedderData(int))
      162    ?GetAlignedPointerFromInternalField@Object@v8@@QEAAPEAXH@Z (public: void * __cdecl v8::Object::GetAlignedPointerFromInternalField(int))
      163    ?GetAlignedPointerFromInternalField@Object@v8@@SAPEAXAEBV?$PersistentBase@VObject@v8@@@2@H@Z (public: static void * __cdecl v8::Object::GetAlignedPointerFromInternalField(class v8::PersistentBase<class v8::Object> const &,int))
      164    ?GetData@Isolate@v8@@QEAAPEAXI@Z (public: void * __cdecl v8::Isolate::GetData(unsigned int))
      165    ?GetEmbedderData@Context@v8@@QEAA?AV?$Local@VValue@v8@@@2@H@Z (public: class v8::Local<class v8::Value> __cdecl v8::Context::GetEmbedderData(int))
      166    ?GetExternalStringResource@String@v8@@QEBAPEAVExternalStringResource@12@XZ (public: class v8::String::ExternalStringResource * __cdecl v8::String::GetExternalStringResource(void)const )
      167    ?GetExternalStringResourceBase@String@v8@@QEBAPEAVExternalStringResourceBase@12@PEAW4Encoding@12@@Z (public: class v8::String::ExternalStringResourceBase * __cdecl v8::String::GetExternalStringResourceBase(enum v8::String::Encoding *)const )
      168    ?GetInternalField@Object@v8@@QEAA?AV?$Local@VValue@v8@@@2@H@Z (public: class v8::Local<class v8::Value> __cdecl v8::Object::GetInternalField(int))
      169    ?GetIsolate@HandleScope@v8@@QEBAPEAVIsolate@2@XZ (public: class v8::Isolate * __cdecl v8::HandleScope::GetIsolate(void)const )
      170    ?GetNativeFunctionTemplate@Extension@v8@@UEAA?AV?$Local@VFunctionTemplate@v8@@@2@PEAVIsolate@2@V?$Local@VString@v8@@@2@@Z (public: virtual class v8::Local<class v8::FunctionTemplate> __cdecl v8::Extension::GetNativeFunctionTemplate(class v8::Isolate *,class v8::Local<class v8::String>))
      171    ?GetNumberOfDataSlots@Isolate@v8@@SAIXZ (public: static unsigned int __cdecl v8::Isolate::GetNumberOfDataSlots(void))
      172    ?InternalFieldCount@Object@v8@@SAHAEBV?$PersistentBase@VObject@v8@@@2@@Z (public: static int __cdecl v8::Object::InternalFieldCount(class v8::PersistentBase<class v8::Object> const &))
      173    ?IsDead@V8@v8@@SA_NXZ (public: static bool __cdecl v8::V8::IsDead(void))
      174    ?IsExecutionTerminating@V8@v8@@SA_NPEAVIsolate@2@@Z (public: static bool __cdecl v8::V8::IsExecutionTerminating(class v8::Isolate *))
      175    ?IsNull@Value@v8@@QEBA_NXZ (public: bool __cdecl v8::Value::IsNull(void)const )
      176    ?IsString@Value@v8@@QEBA_NXZ (public: bool __cdecl v8::Value::IsString(void)const )
      177    ?IsUndefined@Value@v8@@QEBA_NXZ (public: bool __cdecl v8::Value::IsUndefined(void)const )
      178    ?JSStackComparableAddress@TryCatch@v8@@SAPEAXPEAV12@@Z (public: static void * __cdecl v8::TryCatch::JSStackComparableAddress(class v8::TryCatch *))
      179    ?New@Boolean@v8@@SA?AV?$Local@VBoolean@v8@@@2@PEAVIsolate@2@_N@Z (public: static class v8::Local<class v8::Boolean> __cdecl v8::Boolean::New(class v8::Isolate *,bool))
      180    ?NewInstance@Function@v8@@QEBA?AV?$MaybeLocal@VObject@v8@@@2@V?$Local@VContext@v8@@@2@@Z (public: class v8::MaybeLocal<class v8::Object> __cdecl v8::Function::NewInstance(class v8::Local<class v8::Context>)const )
      181    ?QuickIsNull@Value@v8@@AEBA_NXZ (private: bool __cdecl v8::Value::QuickIsNull(void)const )
      182    ?QuickIsString@Value@v8@@AEBA_NXZ (private: bool __cdecl v8::Value::QuickIsString(void)const )
      183    ?QuickIsUndefined@Value@v8@@AEBA_NXZ (private: bool __cdecl v8::Value::QuickIsUndefined(void)const )
      184    ?RemoveGCEpilogueCallback@V8@v8@@SAXP6AXW4GCType@2@W4GCCallbackFlags@2@@Z@Z (public: static void __cdecl v8::V8::RemoveGCEpilogueCallback(void (__cdecl*)(enum v8::GCType,enum v8::GCCallbackFlags)))
      185    ?RemoveGCPrologueCallback@V8@v8@@SAXP6AXW4GCType@2@W4GCCallbackFlags@2@@Z@Z (public: static void __cdecl v8::V8::RemoveGCPrologueCallback(void (__cdecl*)(enum v8::GCType,enum v8::GCCallbackFlags)))
      186    ?RemoveMemoryAllocationCallback@V8@v8@@SAXP6AXW4ObjectSpace@2@W4AllocationAction@2@H@Z@Z (public: static void __cdecl v8::V8::RemoveMemoryAllocationCallback(void (__cdecl*)(enum v8::ObjectSpace,enum v8::AllocationAction,int)))
      187    ?RemoveMessageListeners@V8@v8@@SAXP6AXV?$Local@VMessage@v8@@@2@V?$Local@VValue@v8@@@2@@Z@Z (public: static void __cdecl v8::V8::RemoveMessageListeners(void (__cdecl*)(class v8::Local<class v8::Message>,class v8::Local<class v8::Value>)))
      188    ?Set@Template@v8@@QEAAXPEAVIsolate@2@PEBDV?$Local@VData@v8@@@2@@Z (public: void __cdecl v8::Template::Set(class v8::Isolate *,char const *,class v8::Local<class v8::Data>))
      189    ?SetAllowCodeGenerationFromStringsCallback@V8@v8@@SAXP6A_NV?$Local@VContext@v8@@@2@@Z@Z (public: static void __cdecl v8::V8::SetAllowCodeGenerationFromStringsCallback(bool (__cdecl*)(class v8::Local<class v8::Context>)))
      190    ?SetCaptureStackTraceForUncaughtExceptions@V8@v8@@SAX_NHW4StackTraceOptions@StackTrace@2@@Z (public: static void __cdecl v8::V8::SetCaptureStackTraceForUncaughtExceptions(bool,int,enum v8::StackTrace::StackTraceOptions))
      191    ?SetData@Isolate@v8@@QEAAXIPEAX@Z (public: void __cdecl v8::Isolate::SetData(unsigned int,void *))
      192    ?SetFailedAccessCheckCallbackFunction@V8@v8@@SAXP6AXV?$Local@VObject@v8@@@2@W4AccessType@2@V?$Local@VValue@v8@@@2@@Z@Z (public: static void __cdecl v8::V8::SetFailedAccessCheckCallbackFunction(void (__cdecl*)(class v8::Local<class v8::Object>,enum v8::AccessType,class v8::Local<class v8::Value>)))
      193    ?SetFatalErrorHandler@V8@v8@@SAXP6AXPEBD0@Z@Z (public: static void __cdecl v8::V8::SetFatalErrorHandler(void (__cdecl*)(char const *,char const *)))
      194    ?SetIndexedPropertyHandler@ObjectTemplate@v8@@QEAAXP6AXIAEBV?$PropertyCallbackInfo@VValue@v8@@@2@@ZP6AXIV?$Local@VValue@v8@@@2@0@ZP6AXIAEBV?$PropertyCallbackInfo@VInteger@v8@@@2@@ZP6AXIAEBV?$PropertyCallbackInfo@VBoolean@v8@@@2@@ZP6AXAEBV?$PropertyCallbackInfo@VArray@v8@@@2@@Z2@Z (public: void __cdecl v8::ObjectTemplate::SetIndexedPropertyHandler(void (__cdecl*)(unsigned int,class v8::PropertyCallbackInfo<class v8::Value> const &),void (__cdecl*)(unsigned int,class v8::Local<class v8::Value>,class v8::PropertyCallbackInfo<class v8::Value> const &),void (__cdecl*)(unsigned int,class v8::PropertyCallbackInfo<class v8::Integer> const &),void (__cdecl*)(unsigned int,class v8::PropertyCallbackInfo<class v8::Boolean> const &),void (__cdecl*)(class v8::PropertyCallbackInfo<class v8::Array> const &),class v8::Local<class v8::Value>))
      195    ?TerminateExecution@V8@v8@@SAXPEAVIsolate@2@@Z (public: static void __cdecl v8::V8::TerminateExecution(class v8::Isolate *))
      196    ?ToBoolean@Value@v8@@QEBA?AV?$Local@VBoolean@v8@@@2@XZ (public: class v8::Local<class v8::Boolean> __cdecl v8::Value::ToBoolean(void)const )
      197    ?ToDetailString@Value@v8@@QEBA?AV?$Local@VString@v8@@@2@XZ (public: class v8::Local<class v8::String> __cdecl v8::Value::ToDetailString(void)const )
      198    ?ToInt32@Value@v8@@QEBA?AV?$Local@VInt32@v8@@@2@XZ (public: class v8::Local<class v8::Int32> __cdecl v8::Value::ToInt32(void)const )
      199    ?ToInteger@Value@v8@@QEBA?AV?$Local@VInteger@v8@@@2@XZ (public: class v8::Local<class v8::Integer> __cdecl v8::Value::ToInteger(void)const )
      200    ?ToNumber@Value@v8@@QEBA?AV?$Local@VNumber@v8@@@2@XZ (public: class v8::Local<class v8::Number> __cdecl v8::Value::ToNumber(void)const )
      201    ?ToObject@Value@v8@@QEBA?AV?$Local@VObject@v8@@@2@XZ (public: class v8::Local<class v8::Object> __cdecl v8::Value::ToObject(void)const )
      202    ?ToString@Value@v8@@QEBA?AV?$Local@VString@v8@@@2@XZ (public: class v8::Local<class v8::String> __cdecl v8::Value::ToString(void)const )
      203    ?ToUint32@Value@v8@@QEBA?AV?$Local@VUint32@v8@@@2@XZ (public: class v8::Local<class v8::Uint32> __cdecl v8::Value::ToUint32(void)const )
      204    ?VisitExternalResources@V8@v8@@SAXPEAVExternalResourceVisitor@2@@Z (public: static void __cdecl v8::V8::VisitExternalResources(class v8::ExternalResourceVisitor *))
      205    ?VisitExternalString@ExternalResourceVisitor@v8@@UEAAXV?$Local@VString@v8@@@2@@Z (public: virtual void __cdecl v8::ExternalResourceVisitor::VisitExternalString(class v8::Local<class v8::String>))
      206    ?VisitHandlesForPartialDependence@V8@v8@@SAXPEAVIsolate@2@PEAVPersistentHandleVisitor@2@@Z (public: static void __cdecl v8::V8::VisitHandlesForPartialDependence(class v8::Isolate *,class v8::PersistentHandleVisitor *))
      207    ?VisitHandlesWithClassIds@V8@v8@@SAXPEAVIsolate@2@PEAVPersistentHandleVisitor@2@@Z (public: static void __cdecl v8::V8::VisitHandlesWithClassIds(class v8::Isolate *,class v8::PersistentHandleVisitor *))
      208    ?VisitHandlesWithClassIds@V8@v8@@SAXPEAVPersistentHandleVisitor@2@@Z (public: static void __cdecl v8::V8::VisitHandlesWithClassIds(class v8::PersistentHandleVisitor *))
      209    ?VisitPersistentHandle@PersistentHandleVisitor@v8@@UEAAXPEAV?$Persistent@VValue@v8@@V?$NonCopyablePersistentTraits@VValue@v8@@@2@@2@G@Z (public: virtual void __cdecl v8::PersistentHandleVisitor::VisitPersistentHandle(class v8::Persistent<class v8::Value,class v8::NonCopyablePersistentTraits<class v8::Value> > *,unsigned short))
      210    ?auto_enable@Extension@v8@@QEAA_NXZ (public: bool __cdecl v8::Extension::auto_enable(void))
      211    ?begin@ExtensionConfiguration@v8@@QEBAPEAPEBDXZ (public: char const * * __cdecl v8::ExtensionConfiguration::begin(void)const )
      212    ?code_range_size@ResourceConstraints@v8@@QEBA_KXZ (public: unsigned __int64 __cdecl v8::ResourceConstraints::code_range_size(void)const )
      213    ?data@ExternalOneByteStringResourceImpl@v8@@UEBAPEBDXZ (public: virtual char const * __cdecl v8::ExternalOneByteStringResourceImpl::data(void)const )
      214    ?dependencies@Extension@v8@@QEAAPEAPEBDXZ (public: char const * * __cdecl v8::Extension::dependencies(void))
      215    ?dependency_count@Extension@v8@@QEAAHXZ (public: int __cdecl v8::Extension::dependency_count(void))
      216    ?end@ExtensionConfiguration@v8@@QEBAPEAPEBDXZ (public: char const * * __cdecl v8::ExtensionConfiguration::end(void)const )
      217    ?heap_size_limit@HeapStatistics@v8@@QEAA_KXZ (public: unsigned __int64 __cdecl v8::HeapStatistics::heap_size_limit(void))
      218    ?impl@StreamedSource@ScriptCompiler@v8@@QEBAPEAU1internal@3@XZ (public: struct v8::internal::StreamedSource * __cdecl v8::ScriptCompiler::StreamedSource::impl(void)const )
      219    ?kInternalFieldCount@ArrayBuffer@v8@@2HB (public: static int const v8::ArrayBuffer::kInternalFieldCount)
      220    ?kInternalFieldCount@ArrayBufferView@v8@@2HB (public: static int const v8::ArrayBufferView::kInternalFieldCount)
      221    ?kInternalFieldCount@SharedArrayBuffer@v8@@2HB (public: static int const v8::SharedArrayBuffer::kInternalFieldCount)
      222    ?kMaxLength@String@v8@@2HB (public: static int const v8::String::kMaxLength)
      223    ?kNoColumnInfo@Message@v8@@2HB (public: static int const v8::Message::kNoColumnInfo)
      224    ?kNoLineNumberInfo@Message@v8@@2HB (public: static int const v8::Message::kNoLineNumberInfo)
      225    ?kNoScriptId@UnboundScript@v8@@2HB (public: static int const v8::UnboundScript::kNoScriptId)
      226    ?kNoScriptIdInfo@Message@v8@@2HB (public: static int const v8::Message::kNoScriptIdInfo)
      227    ?length@ExternalOneByteStringResourceImpl@v8@@UEBA_KXZ (public: virtual unsigned __int64 __cdecl v8::ExternalOneByteStringResourceImpl::length(void)const )
      228    ?length@Utf8Value@String@v8@@QEBAHXZ (public: int __cdecl v8::String::Utf8Value::length(void)const )
      229    ?length@Value@String@v8@@QEBAHXZ (public: int __cdecl v8::String::Value::length(void)const )
      230    ?max_executable_size@ResourceConstraints@v8@@QEBAHXZ (public: int __cdecl v8::ResourceConstraints::max_executable_size(void)const )
      231    ?max_old_space_size@ResourceConstraints@v8@@QEBAHXZ (public: int __cdecl v8::ResourceConstraints::max_old_space_size(void)const )
      232    ?max_semi_space_size@ResourceConstraints@v8@@QEBAHXZ (public: int __cdecl v8::ResourceConstraints::max_semi_space_size(void)const )
      233    ?name@Extension@v8@@QEBAPEBDXZ (public: char const * __cdecl v8::Extension::name(void)const )
      234    ?object_count@HeapObjectStatistics@v8@@QEAA_KXZ (public: unsigned __int64 __cdecl v8::HeapObjectStatistics::object_count(void))
      235    ?object_size@HeapObjectStatistics@v8@@QEAA_KXZ (public: unsigned __int64 __cdecl v8::HeapObjectStatistics::object_size(void))
      236    ?object_sub_type@HeapObjectStatistics@v8@@QEAAPEBDXZ (public: char const * __cdecl v8::HeapObjectStatistics::object_sub_type(void))
      237    ?object_type@HeapObjectStatistics@v8@@QEAAPEBDXZ (public: char const * __cdecl v8::HeapObjectStatistics::object_type(void))
      238    ?physical_space_size@HeapSpaceStatistics@v8@@QEAA_KXZ (public: unsigned __int64 __cdecl v8::HeapSpaceStatistics::physical_space_size(void))
      239    ?set_auto_enable@Extension@v8@@QEAAX_N@Z (public: void __cdecl v8::Extension::set_auto_enable(bool))
      240    ?set_code_range_size@ResourceConstraints@v8@@QEAAX_K@Z (public: void __cdecl v8::ResourceConstraints::set_code_range_size(unsigned __int64))
      241    ?set_max_executable_size@ResourceConstraints@v8@@QEAAXH@Z (public: void __cdecl v8::ResourceConstraints::set_max_executable_size(int))
      242    ?set_max_old_space_size@ResourceConstraints@v8@@QEAAXH@Z (public: void __cdecl v8::ResourceConstraints::set_max_old_space_size(int))
      243    ?set_max_semi_space_size@ResourceConstraints@v8@@QEAAXH@Z (public: void __cdecl v8::ResourceConstraints::set_max_semi_space_size(int))
      244    ?set_stack_limit@ResourceConstraints@v8@@QEAAXPEAI@Z (public: void __cdecl v8::ResourceConstraints::set_stack_limit(unsigned int *))
      245    ?source@Extension@v8@@QEBAPEBVExternalOneByteStringResource@String@2@XZ (public: class v8::String::ExternalOneByteStringResource const * __cdecl v8::Extension::source(void)const )
      246    ?source_length@Extension@v8@@QEBA_KXZ (public: unsigned __int64 __cdecl v8::Extension::source_length(void)const )
      247    ?space_available_size@HeapSpaceStatistics@v8@@QEAA_KXZ (public: unsigned __int64 __cdecl v8::HeapSpaceStatistics::space_available_size(void))
      248    ?space_name@HeapSpaceStatistics@v8@@QEAAPEBDXZ (public: char const * __cdecl v8::HeapSpaceStatistics::space_name(void))
      249    ?space_size@HeapSpaceStatistics@v8@@QEAA_KXZ (public: unsigned __int64 __cdecl v8::HeapSpaceStatistics::space_size(void))
      250    ?space_used_size@HeapSpaceStatistics@v8@@QEAA_KXZ (public: unsigned __int64 __cdecl v8::HeapSpaceStatistics::space_used_size(void))
      251    ?stack_limit@ResourceConstraints@v8@@QEBAPEAIXZ (public: unsigned int * __cdecl v8::ResourceConstraints::stack_limit(void)const )
      252    ?total_available_size@HeapStatistics@v8@@QEAA_KXZ (public: unsigned __int64 __cdecl v8::HeapStatistics::total_available_size(void))
      253    ?total_heap_size@HeapStatistics@v8@@QEAA_KXZ (public: unsigned __int64 __cdecl v8::HeapStatistics::total_heap_size(void))
      254    ?total_heap_size_executable@HeapStatistics@v8@@QEAA_KXZ (public: unsigned __int64 __cdecl v8::HeapStatistics::total_heap_size_executable(void))
      255    ?total_physical_size@HeapStatistics@v8@@QEAA_KXZ (public: unsigned __int64 __cdecl v8::HeapStatistics::total_physical_size(void))
      256    ?used_heap_size@HeapStatistics@v8@@QEAA_KXZ (public: unsigned __int64 __cdecl v8::HeapStatistics::used_heap_size(void))
      257    _register_bufferutil_
